 nstim

 Timestamp is 44e2cb4d (Wed Aug 16 00:37:49 2006)

 Preferred load address is 00400000

 Start         Length     Name                   Class
 0001:00000000 0003c8acH .text                   CODE
 0001:0003c8b0 00001965H .text$x                 CODE
 0002:00000000 00002d49H .rdata                  DATA
 0002:00002d50 00001938H .xdata$x                DATA
 0002:00004688 00000000H .edata                  DATA
 0003:00000000 00000004H .CRT$XCA                DATA
 0003:00000004 00000008H .CRT$XCU                DATA
 0003:0000000c 00000004H .CRT$XCZ                DATA
 0003:00000010 00000004H .CRT$XIA                DATA
 0003:00000014 0000000cH .CRT$XIC                DATA
 0003:00000020 00000004H .CRT$XIY                DATA
 0003:00000024 00000004H .CRT$XIZ                DATA
 0003:00000028 00000004H .CRT$XPA                DATA
 0003:0000002c 00000004H .CRT$XPX                DATA
 0003:00000030 00000004H .CRT$XPZ                DATA
 0003:00000034 00000004H .CRT$XTA                DATA
 0003:00000038 00000004H .CRT$XTB                DATA
 0003:0000003c 00000004H .CRT$XTZ                DATA
 0003:00000040 00000e40H .data                   DATA
 0003:00000e80 00001d20H .bss                    DATA
 0004:00000000 00000078H .idata$2                DATA
 0004:00000078 00000014H .idata$3                DATA
 0004:0000008c 00000214H .idata$4                DATA
 0004:000002a0 00000214H .idata$5                DATA
 0004:000004b4 000007ceH .idata$6                DATA
 0005:00000000 00000118H .rsrc$01                DATA
 0005:00000120 000007c0H .rsrc$02                DATA

  Address         Publics by Value              Rva+Base     Lib:Object

 0001:00000000       ??0CIniFile@@QAE@PBD@Z     00401000 f   CIniFile.obj
 0001:00000080       ??_ECIniFile@@UAEPAXI@Z    00401080 f i CIniFile.obj
 0001:00000080       ??_GCIniFile@@UAEPAXI@Z    00401080 f i CIniFile.obj
 0001:000000e0       ??1CIniFile@@UAE@XZ        004010e0 f   CIniFile.obj
 0001:00000110       ?WriteString@CIniFile@@QAE_NPAD00@Z 00401110 f   CIniFile.obj
 0001:00000170       ?ReadString@CIniFile@@QAEPADPAD00@Z 00401170 f   CIniFile.obj
 0001:000001e0       ?WriteInt@CIniFile@@QAE_NPAD0H@Z 004011e0 f   CIniFile.obj
 0001:00000250       ?ReadInt@CIniFile@@QAEHPAD0H@Z 00401250 f   CIniFile.obj
 0001:000002d0       ?WriteDouble@CIniFile@@QAE_NPAD0N@Z 004012d0 f   CIniFile.obj
 0001:00000340       ?ReadDouble@CIniFile@@QAENPAD0N@Z 00401340 f   CIniFile.obj
 0001:000004c0       ??0CNStimApp@@QAE@XZ       004014c0 f   CNStimApp.obj
 0001:00000730       ??_ECNStimApp@@UAEPAXI@Z   00401730 f i CNStimApp.obj
 0001:00000730       ??_GCNStimApp@@UAEPAXI@Z   00401730 f i CNStimApp.obj
 0001:00000790       ??0INStimApp@@QAE@XZ       00401790 f i CNStimApp.obj
 0001:000007d0       ??0IUnknown@@QAE@XZ        004017d0 f i CNStimApp.obj
 0001:00000800       ??1CNStimApp@@UAE@XZ       00401800 f   CNStimApp.obj
 0001:00000920       ?Init@CNStimApp@@UAE_NXZ   00401920 f   CNStimApp.obj
 0001:000009d0       ?MessagePump@CNStimApp@@UAEXXZ 004019d0 f   CNStimApp.obj
 0001:00000a20       ?CreateAtom@CNStimApp@@UAGJPAEPAPAUINStimAtom@@@Z 00401a20 f   CNStimApp.obj
 0001:00000ab0       ?GetGraphicsEngine@CNStimApp@@UAGJPAPAUINStimEngine@@@Z 00401ab0 f   CNStimApp.obj
 0001:00000b10       ?GetCommandEngine@CNStimApp@@UAGJPAPAUINStimCmdEngine@@@Z 00401b10 f   CNStimApp.obj
 0001:00000b70       ?GetProfile@CNStimApp@@UAGJPAPAUINStimProfile@@@Z 00401b70 f   CNStimApp.obj
 0001:00000bd0       ?AddRef@CNStimApp@@UAGKXZ  00401bd0 f   CNStimApp.obj
 0001:00000c20       ?QueryInterface@CNStimApp@@UAGJABU_GUID@@PAPAX@Z 00401c20 f   CNStimApp.obj
 0001:00000cf0       ??8@YAHABU_GUID@@0@Z       00401cf0 f i CNStimApp.obj
 0001:00000d30       ?Release@CNStimApp@@UAGKXZ 00401d30 f   CNStimApp.obj
 0001:00000dc0       ??0?$CSmartPtr@UINStimProfile@@@@QAE@PAUINStimProfile@@@Z 00401dc0 f i CNStimApp.obj
 0001:00000e20       ??1?$CSmartPtr@UINStimProfile@@@@UAE@XZ 00401e20 f i CNStimApp.obj
 0001:00000eb0       ??0?$CList@PAUINStimAtomFactory@@PAU1@@@QAE@H@Z 00401eb0 f i CNStimApp.obj
 0001:00000f00       ??1?$CList@PAUINStimAtomFactory@@PAU1@@@UAE@XZ 00401f00 f i CNStimApp.obj
 0001:00000f40       ?GetHeadPosition@?$CList@PAUINStimAtomFactory@@PAU1@@@QAEPAXXZ 00401f40 f i CNStimApp.obj
 0001:00000f70       ?GetNext@?$CList@PAUINStimAtomFactory@@PAU1@@@QAEAAPAUINStimAtomFactory@@AAPAX@Z 00401f70 f i CNStimApp.obj
 0001:00000fc0       ?AddTail@?$CList@PAUINStimAtomFactory@@PAU1@@@QAEPAXPAUINStimAtomFactory@@@Z 00401fc0 f i CNStimApp.obj
 0001:00001040       ??_G?$CSmartPtr@UINStimProfile@@@@UAEPAXI@Z 00402040 f i CNStimApp.obj
 0001:00001040       ??_E?$CSmartPtr@UINStimProfile@@@@UAEPAXI@Z 00402040 f i CNStimApp.obj
 0001:000010a0       ??_E?$CList@PAUINStimAtomFactory@@PAU1@@@UAEPAXI@Z 004020a0 f i CNStimApp.obj
 0001:000010a0       ??_G?$CList@PAUINStimAtomFactory@@PAU1@@@UAEPAXI@Z 004020a0 f i CNStimApp.obj
 0001:00001100       ??4?$CSmartPtr@UINStimProfile@@@@QAEPAUINStimProfile@@PAU1@@Z 00402100 f i CNStimApp.obj
 0001:000011c0       ?RemoveAll@?$CList@PAUINStimAtomFactory@@PAU1@@@QAEXXZ 004021c0 f i CNStimApp.obj
 0001:00001210       ?AllocNode@?$CList@PAUINStimAtomFactory@@PAU1@@@QAEPAV?$CListNode@PAUINStimAtomFactory@@PAU1@@@PAUINStimAtomFactory@@@Z 00402210 f i CNStimApp.obj
 0001:000012b0       ?LinkAfter@?$CListNode@PAUINStimAtomFactory@@PAU1@@@QAEXPAV1@@Z 004022b0 f i CNStimApp.obj
 0001:00001310       ?GetNext@?$CListNode@PAUINStimAtomFactory@@PAU1@@@QBEPAV1@XZ 00402310 f i CNStimApp.obj
 0001:00001340       ?GetData@?$CListNode@PAUINStimAtomFactory@@PAU1@@@QAEAAPAUINStimAtomFactory@@XZ 00402340 f i CNStimApp.obj
 0001:00001370       ?IsEmpty@?$CList@PAUINStimAtomFactory@@PAU1@@@QBE_NXZ 00402370 f i CNStimApp.obj
 0001:000013c0       ?RemoveHead@?$CList@PAUINStimAtomFactory@@PAU1@@@QAEPAUINStimAtomFactory@@XZ 004023c0 f i CNStimApp.obj
 0001:00001430       ??0?$CListNode@PAUINStimAtomFactory@@PAU1@@@QAE@PAUINStimAtomFactory@@@Z 00402430 f i CNStimApp.obj
 0001:00001480       ?RemoveAt@?$CList@PAUINStimAtomFactory@@PAU1@@@QAEXPAX@Z 00402480 f i CNStimApp.obj
 0001:00001520       ??_G?$CListNode@PAUINStimAtomFactory@@PAU1@@@QAEPAXI@Z 00402520 f i CNStimApp.obj
 0001:00001580       ??1?$CListNode@PAUINStimAtomFactory@@PAU1@@@QAE@XZ 00402580 f i CNStimApp.obj
 0001:000015c0       ?GetPrev@?$CListNode@PAUINStimAtomFactory@@PAU1@@@QAEPAV1@XZ 004025c0 f i CNStimApp.obj
 0001:000015f0       ?Unlink@?$CListNode@PAUINStimAtomFactory@@PAU1@@@QAEXXZ 004025f0 f i CNStimApp.obj
 0001:00001650       ??0CNStimAtom@@QAE@XZ      00402650 f   CNStimAtom.obj
 0001:000016c0       ??_GCNStimAtom@@UAEPAXI@Z  004026c0 f i CNStimAtom.obj
 0001:000016c0       ??_ECNStimAtom@@UAEPAXI@Z  004026c0 f i CNStimAtom.obj
 0001:00001720       ??0INStimAtom@@QAE@XZ      00402720 f i CNStimAtom.obj
 0001:00001760       ??1CNStimAtom@@UAE@XZ      00402760 f   CNStimAtom.obj
 0001:000017f0       ?AddRef@CNStimAtom@@UAGKXZ 004027f0 f   CNStimAtom.obj
 0001:00001840       ?QueryInterface@CNStimAtom@@UAGJABU_GUID@@PAPAX@Z 00402840 f   CNStimAtom.obj
 0001:00001910       ?Release@CNStimAtom@@UAGKXZ 00402910 f   CNStimAtom.obj
 0001:000019a0       ?GetParamCount@CNStimAtom@@UAGJPAH@Z 004029a0 f   CNStimAtom.obj
 0001:000019e0       ?GetParam@CNStimAtom@@UAGJHPAPAUINStimParam@@@Z 004029e0 f   CNStimAtom.obj
 0001:00001a40       ??0?$CList@PAUINStimParam@@PAU1@@@QAE@H@Z 00402a40 f i CNStimAtom.obj
 0001:00001a90       ??1?$CList@PAUINStimParam@@PAU1@@@UAE@XZ 00402a90 f i CNStimAtom.obj
 0001:00001ad0       ?GetCount@?$CList@PAUINStimParam@@PAU1@@@QBEHXZ 00402ad0 f i CNStimAtom.obj
 0001:00001b30       ?FindIndex@?$CList@PAUINStimParam@@PAU1@@@QBEPAXH@Z 00402b30 f i CNStimAtom.obj
 0001:00001b90       ?GetAt@?$CList@PAUINStimParam@@PAU1@@@QAEAAPAUINStimParam@@PAX@Z 00402b90 f i CNStimAtom.obj
 0001:00001bd0       ??_E?$CList@PAUINStimParam@@PAU1@@@UAEPAXI@Z 00402bd0 f i CNStimAtom.obj
 0001:00001bd0       ??_G?$CList@PAUINStimParam@@PAU1@@@UAEPAXI@Z 00402bd0 f i CNStimAtom.obj
 0001:00001c30       ?RemoveAll@?$CList@PAUINStimParam@@PAU1@@@QAEXXZ 00402c30 f i CNStimAtom.obj
 0001:00001c80       ?GetNext@?$CListNode@PAUINStimParam@@PAU1@@@QBEPAV1@XZ 00402c80 f i CNStimAtom.obj
 0001:00001cb0       ?GetData@?$CListNode@PAUINStimParam@@PAU1@@@QAEAAPAUINStimParam@@XZ 00402cb0 f i CNStimAtom.obj
 0001:00001ce0       ?IsEmpty@?$CList@PAUINStimParam@@PAU1@@@QBE_NXZ 00402ce0 f i CNStimAtom.obj
 0001:00001d30       ?RemoveHead@?$CList@PAUINStimParam@@PAU1@@@QAEPAUINStimParam@@XZ 00402d30 f i CNStimAtom.obj
 0001:00001da0       ?RemoveAt@?$CList@PAUINStimParam@@PAU1@@@QAEXPAX@Z 00402da0 f i CNStimAtom.obj
 0001:00001e40       ??_G?$CListNode@PAUINStimParam@@PAU1@@@QAEPAXI@Z 00402e40 f i CNStimAtom.obj
 0001:00001ea0       ??1?$CListNode@PAUINStimParam@@PAU1@@@QAE@XZ 00402ea0 f i CNStimAtom.obj
 0001:00001ee0       ?GetPrev@?$CListNode@PAUINStimParam@@PAU1@@@QAEPAV1@XZ 00402ee0 f i CNStimAtom.obj
 0001:00001f10       ?Unlink@?$CListNode@PAUINStimParam@@PAU1@@@QAEXXZ 00402f10 f i CNStimAtom.obj
 0001:00001f70       ?AdvanceFrame@CNStimAtom@@UAGJH@Z 00402f70 f i CNStimAtom.obj
 0001:00001fa0       ?Init@CNStimAtom@@UAGJPAUINStimEngine@@@Z 00402fa0 f i CNStimAtom.obj
 0001:00001fd0       ?FindParam@CNStimAtom@@UAGJPAEPAPAUINStimParam@@@Z 00402fd0 f i CNStimAtom.obj
 0001:00002060       ?GetHeadPosition@?$CList@PAUINStimParam@@PAU1@@@QAEPAXXZ 00403060 f i CNStimAtom.obj
 0001:00002090       ?GetNext@?$CList@PAUINStimParam@@PAU1@@@QAEAAPAUINStimParam@@AAPAX@Z 00403090 f i CNStimAtom.obj
 0001:000020e0       ?GetName@CNStimAtom@@UAGJPAPAE@Z 004030e0 f i CNStimAtom.obj
 0001:00002120       ?SetName@CNStimAtom@@UAGJPAE@Z 00403120 f i CNStimAtom.obj
 0001:000021a0       ?IsAtom@CNStimAtom@@UAGJPAE@Z 004031a0 f i CNStimAtom.obj
 0001:000021f0       ?Preview@CNStimAtom@@UAGJXZ 004031f0 f i CNStimAtom.obj
 0001:00002230       ?SetPreview@CNStimAtom@@UAGJH@Z 00403230 f i CNStimAtom.obj
 0001:00002260       ?Reset@CNStimAtom@@UAGJPAUINStimEngine@@@Z 00403260 f i CNStimAtom.obj
 0001:00002290       ?SetParam@CNStimAtom@@UAGJPAE0@Z 00403290 f i CNStimAtom.obj
 0001:00002330       ?GetType@CNStimAtom@@UAGJPAPAE@Z 00403330 f i CNStimAtom.obj
 0001:00002370       ?List@CNStimAtom@@UAGJPAUIPort@@@Z 00403370 f i CNStimAtom.obj
 0001:000023a0       ?GetDefiningString@CNStimAtom@@UAGJPADH@Z 004033a0 f i CNStimAtom.obj
 0001:000024c0       ??0CNStimAtomCmd@@QAE@XZ   004034c0 f   CNStimAtomCmd.obj
 0001:00002510       ??_ECNStimAtomCmd@@UAEPAXI@Z 00403510 f i CNStimAtomCmd.obj
 0001:00002510       ??_GCNStimAtomCmd@@UAEPAXI@Z 00403510 f i CNStimAtomCmd.obj
 0001:00002570       ??0INStimCmd@@QAE@XZ       00403570 f i CNStimAtomCmd.obj
 0001:000025b0       ??1CNStimAtomCmd@@UAE@XZ   004035b0 f   CNStimAtomCmd.obj
 0001:000025e0       ?AddRef@CNStimAtomCmd@@UAGKXZ 004035e0 f   CNStimAtomCmd.obj
 0001:00002630       ?QueryInterface@CNStimAtomCmd@@UAGJABU_GUID@@PAPAX@Z 00403630 f   CNStimAtomCmd.obj
 0001:00002700       ?Release@CNStimAtomCmd@@UAGKXZ 00403700 f   CNStimAtomCmd.obj
 0001:00002790       ?IsCmd@CNStimAtomCmd@@UAGJPAE@Z 00403790 f   CNStimAtomCmd.obj
 0001:000027e0       ?Exec@CNStimAtomCmd@@UAGJPAEPAUINStimApp@@PAUIPort@@@Z 004037e0 f   CNStimAtomCmd.obj
 0001:00002a70       ?Help@CNStimAtomCmd@@UAGJPAEPAUINStimApp@@PAUIPort@@@Z 00403a70 f i CNStimAtomCmd.obj
 0001:00002aa0       ??0CNStimAtomGammaElt@@QAE@XZ 00403aa0 f   CNStimAtomGammaElt.obj
 0001:00002d10       ??_ECNStimAtomGammaElt@@UAEPAXI@Z 00403d10 f i CNStimAtomGammaElt.obj
 0001:00002d10       ??_GCNStimAtomGammaElt@@UAEPAXI@Z 00403d10 f i CNStimAtomGammaElt.obj
 0001:00002d70       ??1CNStimAtomGammaElt@@UAE@XZ 00403d70 f   CNStimAtomGammaElt.obj
 0001:00002db0       ?AddTail@?$CList@PAUINStimParam@@PAU1@@@QAEPAXPAUINStimParam@@@Z 00403db0 f i CNStimAtomGammaElt.obj
 0001:00002e30       ?AllocNode@?$CList@PAUINStimParam@@PAU1@@@QAEPAV?$CListNode@PAUINStimParam@@PAU1@@@PAUINStimParam@@@Z 00403e30 f i CNStimAtomGammaElt.obj
 0001:00002ed0       ?LinkAfter@?$CListNode@PAUINStimParam@@PAU1@@@QAEXPAV1@@Z 00403ed0 f i CNStimAtomGammaElt.obj
 0001:00002f30       ??0?$CListNode@PAUINStimParam@@PAU1@@@QAE@PAUINStimParam@@@Z 00403f30 f i CNStimAtomGammaElt.obj
 0001:00002f80       ?Exec@CNStimAtomGammaElt@@UAGJPAUINStimEngine@@@Z 00403f80 f i CNStimAtomGammaElt.obj
 0001:00002ff0       ?Init@CNStimAtomGammaElt@@UAGJPAUINStimEngine@@@Z 00403ff0 f i CNStimAtomGammaElt.obj
 0001:00003020       ?Reset@CNStimAtomGammaElt@@UAGJPAUINStimEngine@@@Z 00404020 f i CNStimAtomGammaElt.obj
 0001:00003050       ?GetType@CNStimAtomGammaElt@@UAGJPAPAE@Z 00404050 f i CNStimAtomGammaElt.obj
 0001:00003090       ?GetParamDataPtr@CNStimIntPatchParam@@QAEPAHXZ 00404090 f i CNStimAtomGammaElt.obj
 0001:000030c0       ??0CNStimBinaryNoisePatch@@QAE@XZ 004040c0 f   CNStimBinaryNoisePatch.obj
 0001:000033e0       ??_ECNStimBinaryNoisePatch@@UAEPAXI@Z 004043e0 f i CNStimBinaryNoisePatch.obj
 0001:000033e0       ??_GCNStimBinaryNoisePatch@@UAEPAXI@Z 004043e0 f i CNStimBinaryNoisePatch.obj
 0001:00003440       ??1CNStimBinaryNoisePatch@@UAE@XZ 00404440 f   CNStimBinaryNoisePatch.obj
 0001:00003500       ?AdvanceFrame@CNStimBinaryNoisePatch@@UAGJH@Z 00404500 f   CNStimBinaryNoisePatch.obj
 0001:00003560       ?Draw@CNStimBinaryNoisePatch@@UAGJPAUINStimEngine@@@Z 00404560 f   CNStimBinaryNoisePatch.obj
 0001:000036d0       ?Init@CNStimBinaryNoisePatch@@UAGJPAUINStimEngine@@@Z 004046d0 f   CNStimBinaryNoisePatch.obj
 0001:00003a40       ?FindParam@CNStimPatch@@UAGJPAEPAPAUINStimParam@@@Z 00404a40 f i CNStimBinaryNoisePatch.obj
 0001:00003ad0       ?GetCenterX@CNStimPatch@@UAGJPAH@Z 00404ad0 f i CNStimBinaryNoisePatch.obj
 0001:00003b00       ?GetCenterY@CNStimPatch@@UAGJPAH@Z 00404b00 f i CNStimBinaryNoisePatch.obj
 0001:00003b30       ?SetCenterX@CNStimPatch@@UAGJH@Z 00404b30 f i CNStimBinaryNoisePatch.obj
 0001:00003b60       ?SetCenterY@CNStimPatch@@UAGJH@Z 00404b60 f i CNStimBinaryNoisePatch.obj
 0001:00003b90       ?GetType@CNStimPatch@@UAGJPAPAE@Z 00404b90 f i CNStimBinaryNoisePatch.obj
 0001:00003bd0       ?SetBlitType@CNStimPatch@@UAGJH@Z 00404bd0 f i CNStimBinaryNoisePatch.obj
 0001:00003c00       ?GetBlitType@CNStimPatch@@UAGJPAH@Z 00404c00 f i CNStimBinaryNoisePatch.obj
 0001:00003c40       ?GetBlitAngle@CNStimPatch@@UAGJPAM@Z 00404c40 f i CNStimBinaryNoisePatch.obj
 0001:00003c80       ?SetBlitAngle@CNStimPatch@@UAGJM@Z 00404c80 f i CNStimBinaryNoisePatch.obj
 0001:00003cb0       ?GetName@CNStimPatch@@UAGJPAPAE@Z 00404cb0 f i CNStimBinaryNoisePatch.obj
 0001:00003cf0       ?SetName@CNStimPatch@@UAGJPAE@Z 00404cf0 f i CNStimBinaryNoisePatch.obj
 0001:00003d70       ?IsPatch@CNStimPatch@@UAGJPAE@Z 00404d70 f i CNStimBinaryNoisePatch.obj
 0001:00003dc0       ?Reset@CNStimPatch@@UAGJPAUINStimEngine@@@Z 00404dc0 f i CNStimBinaryNoisePatch.obj
 0001:00003e30       ?Exec@CNStimPatch@@UAGJPAUINStimEngine@@@Z 00404e30 f i CNStimBinaryNoisePatch.obj
 0001:00003ea0       ?IsAtom@CNStimPatch@@UAGJPAE@Z 00404ea0 f i CNStimBinaryNoisePatch.obj
 0001:00003ef0       ?SetParam@CNStimPatch@@UAGJPAE0@Z 00404ef0 f i CNStimBinaryNoisePatch.obj
 0001:00003f90       ?List@CNStimPatch@@UAGJPAUIPort@@@Z 00404f90 f i CNStimBinaryNoisePatch.obj
 0001:00003fc0       ?GetDefiningString@CNStimPatch@@UAGJPADH@Z 00404fc0 f i CNStimBinaryNoisePatch.obj
 0001:00003ff0       ?Preview@CNStimPatch@@UAGJXZ 00404ff0 f i CNStimBinaryNoisePatch.obj
 0001:00004030       ?SetPreview@CNStimPatch@@UAGJH@Z 00405030 f i CNStimBinaryNoisePatch.obj
 0001:00004060       ??0CDirect3DDevice@@QAE@PAUIDirect3DDevice9@@@Z 00405060 f i CNStimBinaryNoisePatch.obj
 0001:000040f0       ??0?$CSmartPtr@UIDirect3DDevice9@@@@QAE@PAUIDirect3DDevice9@@@Z 004050f0 f i CNStimBinaryNoisePatch.obj
 0001:00004150       ??1?$CSmartPtr@UIDirect3DDevice9@@@@UAE@XZ 00405150 f i CNStimBinaryNoisePatch.obj
 0001:000041e0       ??4?$CSmartPtr@UIDirect3DDevice9@@@@QAEPAUIDirect3DDevice9@@PAU1@@Z 004051e0 f i CNStimBinaryNoisePatch.obj
 0001:000042a0       ??_G?$CSmartPtr@UIDirect3DDevice9@@@@UAEPAXI@Z 004052a0 f i CNStimBinaryNoisePatch.obj
 0001:000042a0       ??_E?$CSmartPtr@UIDirect3DDevice9@@@@UAEPAXI@Z 004052a0 f i CNStimBinaryNoisePatch.obj
 0001:00004300       ??_GCDirect3DDevice@@UAEPAXI@Z 00405300 f i CNStimBinaryNoisePatch.obj
 0001:00004300       ??_ECDirect3DDevice@@UAEPAXI@Z 00405300 f i CNStimBinaryNoisePatch.obj
 0001:00004360       ??0CNStimBitArrayPatchParam@@QAE@XZ 00405360 f   CNStimBitArrayPatchParam.obj
 0001:000043c0       ??_ECNStimBitArrayPatchParam@@UAEPAXI@Z 004053c0 f i CNStimBitArrayPatchParam.obj
 0001:000043c0       ??_GCNStimBitArrayPatchParam@@UAEPAXI@Z 004053c0 f i CNStimBitArrayPatchParam.obj
 0001:00004420       ??1CNStimBitArrayPatchParam@@UAE@XZ 00405420 f   CNStimBitArrayPatchParam.obj
 0001:000044b0       ?GetParamType@CNStimBitArrayPatchParam@@UAGJPAPAE@Z 004054b0 f   CNStimBitArrayPatchParam.obj
 0001:000044e0       ?GetSize@CNStimBitArrayPatchParam@@UAGJPAK@Z 004054e0 f   CNStimBitArrayPatchParam.obj
 0001:00004510       ?GetByte@CNStimBitArrayPatchParam@@UAGJHPAE@Z 00405510 f   CNStimBitArrayPatchParam.obj
 0001:00004550       ?GetRawData@CNStimBitArrayPatchParam@@UAGJPAPAE@Z 00405550 f   CNStimBitArrayPatchParam.obj
 0001:00004580       ?SetParamString@CNStimBitArrayPatchParam@@UAGJPAE@Z 00405580 f   CNStimBitArrayPatchParam.obj
 0001:00004660       ?GetParamInt@CNStimPatchParam@@UAGJPAH@Z 00405660 f i CNStimBitArrayPatchParam.obj
 0001:00004690       ?GetParamDouble@CNStimPatchParam@@UAGJPAN@Z 00405690 f i CNStimBitArrayPatchParam.obj
 0001:000046c0       ?GetParamName@CNStimPatchParam@@UAGJPAPAE@Z 004056c0 f i CNStimBitArrayPatchParam.obj
 0001:00004700       ?SetParamInt@CNStimPatchParam@@UAGJH@Z 00405700 f i CNStimBitArrayPatchParam.obj
 0001:00004730       ?SetParamDouble@CNStimPatchParam@@UAGJN@Z 00405730 f i CNStimBitArrayPatchParam.obj
 0001:00004760       ?SetParamName@CNStimPatchParam@@UAGJPAE@Z 00405760 f i CNStimBitArrayPatchParam.obj
 0001:000047e0       ?GetParamFloat@CNStimPatchParam@@UAGJPAM@Z 004057e0 f i CNStimBitArrayPatchParam.obj
 0001:00004810       ?SetParamFloat@CNStimPatchParam@@UAGJM@Z 00405810 f i CNStimBitArrayPatchParam.obj
 0001:00004840       ?GetParamString@CNStimPatchParam@@UAGJPAEH@Z 00405840 f i CNStimBitArrayPatchParam.obj
 0001:00004870       ??0CNStimBlankPatch@@QAE@XZ 00405870 f   CNStimBlankPatch.obj
 0001:000048c0       ??_GCNStimBlankPatch@@UAEPAXI@Z 004058c0 f i CNStimBlankPatch.obj
 0001:000048c0       ??_ECNStimBlankPatch@@UAEPAXI@Z 004058c0 f i CNStimBlankPatch.obj
 0001:00004920       ??1CNStimBlankPatch@@UAE@XZ 00405920 f   CNStimBlankPatch.obj
 0001:00004960       ?AdvanceFrame@CNStimPatch@@UAGJH@Z 00405960 f i CNStimBlankPatch.obj
 0001:00004990       ?Draw@CNStimPatch@@UAGJPAUINStimEngine@@@Z 00405990 f i CNStimBlankPatch.obj
 0001:000049c0       ?Init@CNStimPatch@@UAGJPAUINStimEngine@@@Z 004059c0 f i CNStimBlankPatch.obj
 0001:00004a30       ??0CNStimBuiltInAtomFactory@@QAE@XZ 00405a30 f   CNStimBuiltInAtomFactory.obj
 0001:00004a80       ??_ECNStimBuiltInAtomFactory@@UAEPAXI@Z 00405a80 f i CNStimBuiltInAtomFactory.obj
 0001:00004a80       ??_GCNStimBuiltInAtomFactory@@UAEPAXI@Z 00405a80 f i CNStimBuiltInAtomFactory.obj
 0001:00004ae0       ??0INStimAtomFactory@@QAE@XZ 00405ae0 f i CNStimBuiltInAtomFactory.obj
 0001:00004b20       ??1CNStimBuiltInAtomFactory@@UAE@XZ 00405b20 f   CNStimBuiltInAtomFactory.obj
 0001:00004b50       ?AddRef@CNStimBuiltInAtomFactory@@UAGKXZ 00405b50 f   CNStimBuiltInAtomFactory.obj
 0001:00004ba0       ?QueryInterface@CNStimBuiltInAtomFactory@@UAGJABU_GUID@@PAPAX@Z 00405ba0 f   CNStimBuiltInAtomFactory.obj
 0001:00004c70       ?Release@CNStimBuiltInAtomFactory@@UAGKXZ 00405c70 f   CNStimBuiltInAtomFactory.obj
 0001:00004d00       ?IsValidAtomType@CNStimBuiltInAtomFactory@@UAGJPAE@Z 00405d00 f   CNStimBuiltInAtomFactory.obj
 0001:00004d70       ?CreateAtom@CNStimBuiltInAtomFactory@@UAGJPAEPAPAUINStimAtom@@@Z 00405d70 f   CNStimBuiltInAtomFactory.obj
 0001:00005210       ??0CNStimCmdEngine@@QAE@XZ 00406210 f   CNStimCmdEngine.obj
 0001:00005430       ??_ECNStimCmdEngine@@UAEPAXI@Z 00406430 f i CNStimCmdEngine.obj
 0001:00005430       ??_GCNStimCmdEngine@@UAEPAXI@Z 00406430 f i CNStimCmdEngine.obj
 0001:00005490       ??0INStimCmdEngine@@QAE@XZ 00406490 f i CNStimCmdEngine.obj
 0001:000054d0       ??0IPortServerCallback@@QAE@XZ 004064d0 f i CNStimCmdEngine.obj
 0001:00005510       ??0IPortCallback@@QAE@XZ   00406510 f i CNStimCmdEngine.obj
 0001:00005550       ??1CNStimCmdEngine@@UAE@XZ 00406550 f   CNStimCmdEngine.obj
 0001:00005620       ?Init@CNStimCmdEngine@@QAE_NPAUINStimApp@@@Z 00406620 f   CNStimCmdEngine.obj
 0001:00005770       ?OnCommand@CNStimCmdEngine@@IAEXPAUIPort@@PADH@Z 00406770 f   CNStimCmdEngine.obj
 0001:00005950       ?OnPortEvent@CNStimCmdEngine@@UAGJPAUIUnknown@@KKK@Z 00406950 f   CNStimCmdEngine.obj
 0001:00005ae0       ?AddRef@CNStimCmdEngine@@UAGKXZ 00406ae0 f   CNStimCmdEngine.obj
 0001:00005b30       ?QueryInterface@CNStimCmdEngine@@UAGJABU_GUID@@PAPAX@Z 00406b30 f   CNStimCmdEngine.obj
 0001:00005c50       ?Release@CNStimCmdEngine@@UAGKXZ 00406c50 f   CNStimCmdEngine.obj
 0001:00005ce0       ??0?$CList@PAUIPort@@PAU1@@@QAE@H@Z 00406ce0 f i CNStimCmdEngine.obj
 0001:00005d30       ??1?$CList@PAUIPort@@PAU1@@@UAE@XZ 00406d30 f i CNStimCmdEngine.obj
 0001:00005d70       ?AddTail@?$CList@PAUIPort@@PAU1@@@QAEPAXPAUIPort@@@Z 00406d70 f i CNStimCmdEngine.obj
 0001:00005df0       ??0?$CSmartPtr@UINStimApp@@@@QAE@PAUINStimApp@@@Z 00406df0 f i CNStimCmdEngine.obj
 0001:00005e50       ??1?$CSmartPtr@UINStimApp@@@@UAE@XZ 00406e50 f i CNStimCmdEngine.obj
 0001:00005ee0       ??4?$CSmartPtr@UINStimApp@@@@QAEPAUINStimApp@@PAU1@@Z 00406ee0 f i CNStimCmdEngine.obj
 0001:00005fa0       ?GetPtr@?$CSmartPtr@UINStimApp@@@@QBEPAUINStimApp@@XZ 00406fa0 f i CNStimCmdEngine.obj
 0001:00005fd0       ??C?$CSmartPtr@UINStimApp@@@@QBEPAUINStimApp@@XZ 00406fd0 f i CNStimCmdEngine.obj
 0001:00006000       ??0?$CList@PAUINStimCmd@@PAU1@@@QAE@H@Z 00407000 f i CNStimCmdEngine.obj
 0001:00006050       ??1?$CList@PAUINStimCmd@@PAU1@@@UAE@XZ 00407050 f i CNStimCmdEngine.obj
 0001:00006090       ?GetHeadPosition@?$CList@PAUINStimCmd@@PAU1@@@QAEPAXXZ 00407090 f i CNStimCmdEngine.obj
 0001:000060c0       ?GetNext@?$CList@PAUINStimCmd@@PAU1@@@QAEAAPAUINStimCmd@@AAPAX@Z 004070c0 f i CNStimCmdEngine.obj
 0001:00006110       ?AddTail@?$CList@PAUINStimCmd@@PAU1@@@QAEPAXPAUINStimCmd@@@Z 00407110 f i CNStimCmdEngine.obj
 0001:00006190       ??0?$CSmartPtr@UINStimCmd@@@@QAE@PAUINStimCmd@@@Z 00407190 f i CNStimCmdEngine.obj
 0001:000061f0       ??1?$CSmartPtr@UINStimCmd@@@@UAE@XZ 004071f0 f i CNStimCmdEngine.obj
 0001:00006280       ??C?$CSmartPtr@UINStimCmd@@@@QBEPAUINStimCmd@@XZ 00407280 f i CNStimCmdEngine.obj
 0001:000062b0       ??_G?$CList@PAUIPort@@PAU1@@@UAEPAXI@Z 004072b0 f i CNStimCmdEngine.obj
 0001:000062b0       ??_E?$CList@PAUIPort@@PAU1@@@UAEPAXI@Z 004072b0 f i CNStimCmdEngine.obj
 0001:00006310       ??_E?$CSmartPtr@UINStimApp@@@@UAEPAXI@Z 00407310 f i CNStimCmdEngine.obj
 0001:00006310       ??_G?$CSmartPtr@UINStimApp@@@@UAEPAXI@Z 00407310 f i CNStimCmdEngine.obj
 0001:00006370       ??_G?$CList@PAUINStimCmd@@PAU1@@@UAEPAXI@Z 00407370 f i CNStimCmdEngine.obj
 0001:00006370       ??_E?$CList@PAUINStimCmd@@PAU1@@@UAEPAXI@Z 00407370 f i CNStimCmdEngine.obj
 0001:000063d0       ??_E?$CSmartPtr@UINStimCmd@@@@UAEPAXI@Z 004073d0 f i CNStimCmdEngine.obj
 0001:000063d0       ??_G?$CSmartPtr@UINStimCmd@@@@UAEPAXI@Z 004073d0 f i CNStimCmdEngine.obj
 0001:00006430       ?RemoveAll@?$CList@PAUIPort@@PAU1@@@QAEXXZ 00407430 f i CNStimCmdEngine.obj
 0001:00006480       ?AllocNode@?$CList@PAUIPort@@PAU1@@@QAEPAV?$CListNode@PAUIPort@@PAU1@@@PAUIPort@@@Z 00407480 f i CNStimCmdEngine.obj
 0001:00006520       ?RemoveAll@?$CList@PAUINStimCmd@@PAU1@@@QAEXXZ 00407520 f i CNStimCmdEngine.obj
 0001:00006570       ?AllocNode@?$CList@PAUINStimCmd@@PAU1@@@QAEPAV?$CListNode@PAUINStimCmd@@PAU1@@@PAUINStimCmd@@@Z 00407570 f i CNStimCmdEngine.obj
 0001:00006610       ??4?$CSmartPtr@UINStimCmd@@@@QAEPAUINStimCmd@@PAU1@@Z 00407610 f i CNStimCmdEngine.obj
 0001:000066d0       ?LinkAfter@?$CListNode@PAUIPort@@PAU1@@@QAEXPAV1@@Z 004076d0 f i CNStimCmdEngine.obj
 0001:00006730       ?LinkAfter@?$CListNode@PAUINStimCmd@@PAU1@@@QAEXPAV1@@Z 00407730 f i CNStimCmdEngine.obj
 0001:00006790       ?GetNext@?$CListNode@PAUINStimCmd@@PAU1@@@QBEPAV1@XZ 00407790 f i CNStimCmdEngine.obj
 0001:000067c0       ?GetData@?$CListNode@PAUINStimCmd@@PAU1@@@QAEAAPAUINStimCmd@@XZ 004077c0 f i CNStimCmdEngine.obj
 0001:000067f0       ?IsEmpty@?$CList@PAUIPort@@PAU1@@@QBE_NXZ 004077f0 f i CNStimCmdEngine.obj
 0001:00006840       ?RemoveHead@?$CList@PAUIPort@@PAU1@@@QAEPAUIPort@@XZ 00407840 f i CNStimCmdEngine.obj
 0001:000068b0       ?IsEmpty@?$CList@PAUINStimCmd@@PAU1@@@QBE_NXZ 004078b0 f i CNStimCmdEngine.obj
 0001:00006900       ?RemoveHead@?$CList@PAUINStimCmd@@PAU1@@@QAEPAUINStimCmd@@XZ 00407900 f i CNStimCmdEngine.obj
 0001:00006970       ??0?$CListNode@PAUIPort@@PAU1@@@QAE@PAUIPort@@@Z 00407970 f i CNStimCmdEngine.obj
 0001:000069c0       ??0?$CListNode@PAUINStimCmd@@PAU1@@@QAE@PAUINStimCmd@@@Z 004079c0 f i CNStimCmdEngine.obj
 0001:00006a10       ?RemoveAt@?$CList@PAUIPort@@PAU1@@@QAEXPAX@Z 00407a10 f i CNStimCmdEngine.obj
 0001:00006ab0       ?RemoveAt@?$CList@PAUINStimCmd@@PAU1@@@QAEXPAX@Z 00407ab0 f i CNStimCmdEngine.obj
 0001:00006b50       ?GetData@?$CListNode@PAUIPort@@PAU1@@@QAEAAPAUIPort@@XZ 00407b50 f i CNStimCmdEngine.obj
 0001:00006b80       ??_G?$CListNode@PAUIPort@@PAU1@@@QAEPAXI@Z 00407b80 f i CNStimCmdEngine.obj
 0001:00006be0       ??_G?$CListNode@PAUINStimCmd@@PAU1@@@QAEPAXI@Z 00407be0 f i CNStimCmdEngine.obj
 0001:00006c40       ??1?$CListNode@PAUIPort@@PAU1@@@QAE@XZ 00407c40 f i CNStimCmdEngine.obj
 0001:00006c80       ?GetNext@?$CListNode@PAUIPort@@PAU1@@@QBEPAV1@XZ 00407c80 f i CNStimCmdEngine.obj
 0001:00006cb0       ?GetPrev@?$CListNode@PAUIPort@@PAU1@@@QAEPAV1@XZ 00407cb0 f i CNStimCmdEngine.obj
 0001:00006ce0       ??1?$CListNode@PAUINStimCmd@@PAU1@@@QAE@XZ 00407ce0 f i CNStimCmdEngine.obj
 0001:00006d20       ?GetPrev@?$CListNode@PAUINStimCmd@@PAU1@@@QAEPAV1@XZ 00407d20 f i CNStimCmdEngine.obj
 0001:00006d50       ?Unlink@?$CListNode@PAUIPort@@PAU1@@@QAEXXZ 00407d50 f i CNStimCmdEngine.obj
 0001:00006db0       ?Unlink@?$CListNode@PAUINStimCmd@@PAU1@@@QAEXXZ 00407db0 f i CNStimCmdEngine.obj
 0001:00006e10       ?QueryInterface@CNStimCmdEngine@@W3AGJABU_GUID@@PAPAX@Z 00407e10 f i CNStimCmdEngine.obj
 0001:00006e20       ?AddRef@CNStimCmdEngine@@W3AGKXZ 00407e20 f i CNStimCmdEngine.obj
 0001:00006e30       ?Release@CNStimCmdEngine@@W3AGKXZ 00407e30 f i CNStimCmdEngine.obj
 0001:00006e40       ?QueryInterface@CNStimCmdEngine@@W7AGJABU_GUID@@PAPAX@Z 00407e40 f i CNStimCmdEngine.obj
 0001:00006e50       ?AddRef@CNStimCmdEngine@@W7AGKXZ 00407e50 f i CNStimCmdEngine.obj
 0001:00006e60       ?Release@CNStimCmdEngine@@W7AGKXZ 00407e60 f i CNStimCmdEngine.obj
 0001:00006e70       ?OnPortEvent@CNStimCmdEngine@@W3AGJPAUIUnknown@@KKK@Z 00407e70 f i CNStimCmdEngine.obj
 0001:00006e80       ?Test@CNStimCmdEngine@@UAGJXZ 00407e80 f i CNStimCmdEngine.obj
 0001:00006eb0       ??0CNStimColorRectPatch@@QAE@XZ 00407eb0 f   CNStimColorRectPatch.obj
 0001:00007080       ??_ECNStimColorRectPatch@@UAEPAXI@Z 00408080 f i CNStimColorRectPatch.obj
 0001:00007080       ??_GCNStimColorRectPatch@@UAEPAXI@Z 00408080 f i CNStimColorRectPatch.obj
 0001:000070e0       ??1CNStimColorRectPatch@@UAE@XZ 004080e0 f   CNStimColorRectPatch.obj
 0001:00007120       ?AdvanceFrame@CNStimColorRectPatch@@UAGJH@Z 00408120 f   CNStimColorRectPatch.obj
 0001:00007150       ?Draw@CNStimColorRectPatch@@UAGJPAUINStimEngine@@@Z 00408150 f   CNStimColorRectPatch.obj
 0001:00007290       ?Init@CNStimColorRectPatch@@UAGJPAUINStimEngine@@@Z 00408290 f   CNStimColorRectPatch.obj
 0001:000072c0       ??0CNStimEngine@@QAE@XZ    004082c0 f   CNStimEngine.obj
 0001:00007460       ??_ECNStimEngine@@UAEPAXI@Z 00408460 f i CNStimEngine.obj
 0001:00007460       ??_GCNStimEngine@@UAEPAXI@Z 00408460 f i CNStimEngine.obj
 0001:000074c0       ??0INStimEngine@@QAE@XZ    004084c0 f i CNStimEngine.obj
 0001:00007500       ??1CNStimEngine@@UAE@XZ    00408500 f   CNStimEngine.obj
 0001:00007610       ?PrepareDeviceFor2D@CNStimEngine@@QAEXXZ 00408610 f   CNStimEngine.obj
 0001:00007770       ?AddRef@CNStimEngine@@UAGKXZ 00408770 f   CNStimEngine.obj
 0001:000077c0       ?QueryInterface@CNStimEngine@@UAGJABU_GUID@@PAPAX@Z 004087c0 f   CNStimEngine.obj
 0001:00007890       ?Release@CNStimEngine@@UAGKXZ 00408890 f   CNStimEngine.obj
 0001:00007920       ?Init@CNStimEngine@@QAE_NABV?$CSmartPtr@UINStimProfile@@@@@Z 00408920 f   CNStimEngine.obj
 0001:00007d90       ?SetState@CNStimEngine@@UAGJK@Z 00408d90 f   CNStimEngine.obj
 0001:00007e10       ?GetState@CNStimEngine@@UAGJPAK@Z 00408e10 f   CNStimEngine.obj
 0001:00007e50       ?Stop@CNStimEngine@@UAGJXZ 00408e50 f   CNStimEngine.obj
 0001:00007ec0       ?Snap@CNStimEngine@@UAGJPBE@Z 00408ec0 f   CNStimEngine.obj
 0001:000084d0       ?CalibFramerate@CNStimEngine@@UAGJH@Z 004094d0 f   CNStimEngine.obj
 0001:000089a0       ?Run@CNStimEngine@@UAGJXZ  004099a0 f   CNStimEngine.obj
 0001:0000a060       ?GetDirect3DDevice@CNStimEngine@@UAGJPAPAUIDirect3DDevice9@@@Z 0040b060 f   CNStimEngine.obj
 0001:0000a0c0       ?AddAtomA@CNStimEngine@@UAGJPAUINStimAtom@@@Z 0040b0c0 f   CNStimEngine.obj
 0001:0000a120       ?RemoveAtom@CNStimEngine@@UAGJPAUINStimAtom@@@Z 0040b120 f   CNStimEngine.obj
 0001:0000a1b0       ?FindAtomA@CNStimEngine@@UAGJPAEPAPAUINStimAtom@@@Z 0040b1b0 f   CNStimEngine.obj
 0001:0000a240       ?GetAtomCount@CNStimEngine@@UAGJPAH@Z 0040b240 f   CNStimEngine.obj
 0001:0000a280       ?GetAtom@CNStimEngine@@UAGJHPAPAUINStimAtom@@@Z 0040b280 f   CNStimEngine.obj
 0001:0000a2e0       ?ClearAtom@CNStimEngine@@UAGJXZ 0040b2e0 f   CNStimEngine.obj
 0001:0000a350       ?ClearSequence@CNStimEngine@@UAGJXZ 0040b350 f   CNStimEngine.obj
 0001:0000a390       ?ApplyViewport@CNStimEngine@@UAGJPAU_D3DVIEWPORT9@@@Z 0040b390 f   CNStimEngine.obj
 0001:0000a440       ??1?$CSmartPtr@UIDirect3DSurface9@@@@UAE@XZ 0040b440 f i CNStimEngine.obj
 0001:0000a4d0       ??C?$CSmartPtr@UIDirect3DSurface9@@@@QBEPAUIDirect3DSurface9@@XZ 0040b4d0 f i CNStimEngine.obj
 0001:0000a500       ??C?$CSmartPtr@UIDirect3DDevice9@@@@QBEPAUIDirect3DDevice9@@XZ 0040b500 f i CNStimEngine.obj
 0001:0000a530       ??0?$CList@PAUINStimAtom@@PAU1@@@QAE@H@Z 0040b530 f i CNStimEngine.obj
 0001:0000a580       ??1?$CList@PAUINStimAtom@@PAU1@@@UAE@XZ 0040b580 f i CNStimEngine.obj
 0001:0000a5c0       ?GetHeadPosition@?$CList@PAUINStimAtom@@PAU1@@@QAEPAXXZ 0040b5c0 f i CNStimEngine.obj
 0001:0000a5f0       ?GetCount@?$CList@PAUINStimAtom@@PAU1@@@QBEHXZ 0040b5f0 f i CNStimEngine.obj
 0001:0000a650       ?GetNext@?$CList@PAUINStimAtom@@PAU1@@@QAEAAPAUINStimAtom@@AAPAX@Z 0040b650 f i CNStimEngine.obj
 0001:0000a6a0       ?AddTail@?$CList@PAUINStimAtom@@PAU1@@@QAEPAXPAUINStimAtom@@@Z 0040b6a0 f i CNStimEngine.obj
 0001:0000a720       ?FindIndex@?$CList@PAUINStimAtom@@PAU1@@@QBEPAXH@Z 0040b720 f i CNStimEngine.obj
 0001:0000a780       ?GetAt@?$CList@PAUINStimAtom@@PAU1@@@QAEAAPAUINStimAtom@@PAX@Z 0040b780 f i CNStimEngine.obj
 0001:0000a7c0       ?IsEmpty@?$CList@PAUINStimAtom@@PAU1@@@QBE_NXZ 0040b7c0 f i CNStimEngine.obj
 0001:0000a810       ?RemoveAt@?$CList@PAUINStimAtom@@PAU1@@@QAEXPAX@Z 0040b810 f i CNStimEngine.obj
 0001:0000a8b0       ?RemoveHead@?$CList@PAUINStimAtom@@PAU1@@@QAEPAUINStimAtom@@XZ 0040b8b0 f i CNStimEngine.obj
 0001:0000a920       ??4?$CSmartPtr@UINStimProfile@@@@QAEAAV0@ABV0@@Z 0040b920 f i CNStimEngine.obj
 0001:0000a970       ??C?$CSmartPtr@UINStimProfile@@@@QBEPAUINStimProfile@@XZ 0040b970 f i CNStimEngine.obj
 0001:0000a9a0       ??_G?$CSmartPtr@UIDirect3DSurface9@@@@UAEPAXI@Z 0040b9a0 f i CNStimEngine.obj
 0001:0000a9a0       ??_E?$CSmartPtr@UIDirect3DSurface9@@@@UAEPAXI@Z 0040b9a0 f i CNStimEngine.obj
 0001:0000aa00       ??_E?$CList@PAUINStimAtom@@PAU1@@@UAEPAXI@Z 0040ba00 f i CNStimEngine.obj
 0001:0000aa00       ??_G?$CList@PAUINStimAtom@@PAU1@@@UAEPAXI@Z 0040ba00 f i CNStimEngine.obj
 0001:0000aa60       ??_G?$CListNode@PAUINStimAtom@@PAU1@@@QAEPAXI@Z 0040ba60 f i CNStimEngine.obj
 0001:0000aac0       ?RemoveAll@?$CList@PAUINStimAtom@@PAU1@@@QAEXXZ 0040bac0 f i CNStimEngine.obj
 0001:0000ab10       ?AllocNode@?$CList@PAUINStimAtom@@PAU1@@@QAEPAV?$CListNode@PAUINStimAtom@@PAU1@@@PAUINStimAtom@@@Z 0040bb10 f i CNStimEngine.obj
 0001:0000abb0       ??4?$CSmartPtr@UINStimProfile@@@@QAEPAUIUnknown@@PAU1@@Z 0040bbb0 f i CNStimEngine.obj
 0001:0000ac70       ??1?$CListNode@PAUINStimAtom@@PAU1@@@QAE@XZ 0040bc70 f i CNStimEngine.obj
 0001:0000acb0       ?LinkAfter@?$CListNode@PAUINStimAtom@@PAU1@@@QAEXPAV1@@Z 0040bcb0 f i CNStimEngine.obj
 0001:0000ad10       ?GetNext@?$CListNode@PAUINStimAtom@@PAU1@@@QBEPAV1@XZ 0040bd10 f i CNStimEngine.obj
 0001:0000ad40       ?GetPrev@?$CListNode@PAUINStimAtom@@PAU1@@@QAEPAV1@XZ 0040bd40 f i CNStimEngine.obj
 0001:0000ad70       ?GetData@?$CListNode@PAUINStimAtom@@PAU1@@@QAEAAPAUINStimAtom@@XZ 0040bd70 f i CNStimEngine.obj
 0001:0000ada0       ?GetPtr@?$CSmartPtr@UINStimProfile@@@@QBEPAUINStimProfile@@XZ 0040bda0 f i CNStimEngine.obj
 0001:0000add0       ??0?$CListNode@PAUINStimAtom@@PAU1@@@QAE@PAUINStimAtom@@@Z 0040bdd0 f i CNStimEngine.obj
 0001:0000ae20       ?Unlink@?$CListNode@PAUINStimAtom@@PAU1@@@QAEXXZ 0040be20 f i CNStimEngine.obj
 0001:0000ae80       ?GetDirect3DSurface@CDirect3DSurface@@QAEPAUIDirect3DSurface9@@XZ 0040be80 f i CNStimEngine.obj
 0001:0000aec0       ?GetPtr@?$CSmartPtr@UIDirect3DSurface9@@@@QBEPAUIDirect3DSurface9@@XZ 0040bec0 f i CNStimEngine.obj
 0001:0000aef0       ??CCDirect3DSurface@@QAE?AV?$CSmartPtr@UIDirect3DSurface9@@@@XZ 0040bef0 f i CNStimEngine.obj
 0001:0000af50       ??0?$CSmartPtr@UIDirect3DSurface9@@@@QAE@ABV0@@Z 0040bf50 f i CNStimEngine.obj
 0001:0000afb0       ??4?$CSmartPtr@UIDirect3DSurface9@@@@QAEAAV0@ABV0@@Z 0040bfb0 f i CNStimEngine.obj
 0001:0000b000       ??4?$CSmartPtr@UIDirect3DSurface9@@@@QAEPAUIUnknown@@PAU1@@Z 0040c000 f i CNStimEngine.obj
 0001:0000b0c0       ??4CDirect3DDevice@@QAEAAV0@ABV0@@Z 0040c0c0 f i CNStimEngine.obj
 0001:0000b110       ??4?$CSmartPtr@UIDirect3DDevice9@@@@QAEAAV0@ABV0@@Z 0040c110 f i CNStimEngine.obj
 0001:0000b160       ??4?$CSmartPtr@UIDirect3DDevice9@@@@QAEPAUIUnknown@@PAU1@@Z 0040c160 f i CNStimEngine.obj
 0001:0000b220       ?GetPtr@?$CSmartPtr@UIDirect3DDevice9@@@@QBEPAUIDirect3DDevice9@@XZ 0040c220 f i CNStimEngine.obj
 0001:0000b250       ??CCDirect3DDevice@@QAE?AV?$CSmartPtr@UIDirect3DDevice9@@@@XZ 0040c250 f i CNStimEngine.obj
 0001:0000b2b0       ??0?$CSmartPtr@UIDirect3DDevice9@@@@QAE@ABV0@@Z 0040c2b0 f i CNStimEngine.obj
 0001:0000b310       ?GetDirect3DDevice@CDirect3DDevice@@QAEPAUIDirect3DDevice9@@XZ 0040c310 f i CNStimEngine.obj
 0001:0000b350       ?GetViewportCenter@CNStimEngine@@UAGJPAH0@Z 0040c350 f i CNStimEngine.obj
 0001:0000b390       ?SetViewportCenter@CNStimEngine@@UAGJHH@Z 0040c390 f i CNStimEngine.obj
 0001:0000b3d0       ?Stimulate@CNStimEngine@@UAGJKPAE@Z 0040c3d0 f i CNStimEngine.obj
 0001:0000b480       ?Simulate@CNStimEngine@@UAGJKPAE@Z 0040c480 f i CNStimEngine.obj
 0001:0000b530       ?AddSequenceMarker@CNStimEngine@@UAGJHHPAEKH@Z 0040c530 f i CNStimEngine.obj
 0001:0000b5b0       ?SetBkColor@CNStimEngine@@UAGJK@Z 0040c5b0 f i CNStimEngine.obj
 0001:0000b5e0       ?GetBkColor@CNStimEngine@@UAGJPAK@Z 0040c5e0 f i CNStimEngine.obj
 0001:0000b620       ?GetFrameRate@CNStimEngine@@UAGJPAN@Z 0040c620 f i CNStimEngine.obj
 0001:0000b660       ?GetDisplayMode@CNStimEngine@@UAGJPAPAU_D3DDISPLAYMODE@@@Z 0040c660 f i CNStimEngine.obj
 0001:0000b6a0       ?SetGammaRampElement@CNStimEngine@@UAGJHGGG@Z 0040c6a0 f i CNStimEngine.obj
 0001:0000b780       ?GetGammaRampElement@CNStimEngine@@UAGJHPAG00@Z 0040c780 f i CNStimEngine.obj
 0001:0000b7e0       ?SetGammaRamp@CNStimEngine@@UAGJPAU_D3DGAMMARAMP@@@Z 0040c7e0 f i CNStimEngine.obj
 0001:0000b8a0       ?GetGammaRamp@CNStimEngine@@UAGJPAU_D3DGAMMARAMP@@@Z 0040c8a0 f i CNStimEngine.obj
 0001:0000b8f0       ??0CNStimExecAtom@@QAE@XZ  0040c8f0 f   CNStimExecAtom.obj
 0001:0000b940       ??_ECNStimExecAtom@@UAEPAXI@Z 0040c940 f i CNStimExecAtom.obj
 0001:0000b940       ??_GCNStimExecAtom@@UAEPAXI@Z 0040c940 f i CNStimExecAtom.obj
 0001:0000b9a0       ??1CNStimExecAtom@@UAE@XZ  0040c9a0 f   CNStimExecAtom.obj
 0001:0000b9e0       ??0CNStimFloatPatchParam@@QAE@XZ 0040c9e0 f   CNStimFloatPatchParam.obj
 0001:0000ba40       ??_ECNStimFloatPatchParam@@UAEPAXI@Z 0040ca40 f i CNStimFloatPatchParam.obj
 0001:0000ba40       ??_GCNStimFloatPatchParam@@UAEPAXI@Z 0040ca40 f i CNStimFloatPatchParam.obj
 0001:0000baa0       ??1CNStimFloatPatchParam@@UAE@XZ 0040caa0 f   CNStimFloatPatchParam.obj
 0001:0000bae0       ?GetSize@CNStimPatchParam@@UAGJPAK@Z 0040cae0 f i CNStimFloatPatchParam.obj
 0001:0000bb10       ?GetByte@CNStimPatchParam@@UAGJHPAE@Z 0040cb10 f i CNStimFloatPatchParam.obj
 0001:0000bb40       ?GetRawData@CNStimPatchParam@@UAGJPAPAE@Z 0040cb40 f i CNStimFloatPatchParam.obj
 0001:0000bb70       ?GetParamType@CNStimFloatPatchParam@@UAGJPAPAE@Z 0040cb70 f i CNStimFloatPatchParam.obj
 0001:0000bbb0       ?GetParamFloat@CNStimFloatPatchParam@@UAGJPAM@Z 0040cbb0 f i CNStimFloatPatchParam.obj
 0001:0000bbf0       ?SetParamFloat@CNStimFloatPatchParam@@UAGJM@Z 0040cbf0 f i CNStimFloatPatchParam.obj
 0001:0000bc20       ?SetParamString@CNStimFloatPatchParam@@UAGJPAE@Z 0040cc20 f i CNStimFloatPatchParam.obj
 0001:0000bcf0       ??0CNStimGratingPatch@@QAE@XZ 0040ccf0 f   CNStimGratingPatch.obj
 0001:0000c630       ??_GCNStimGratingPatch@@UAEPAXI@Z 0040d630 f i CNStimGratingPatch.obj
 0001:0000c630       ??_ECNStimGratingPatch@@UAEPAXI@Z 0040d630 f i CNStimGratingPatch.obj
 0001:0000c690       ??1CNStimGratingPatch@@UAE@XZ 0040d690 f   CNStimGratingPatch.obj
 0001:0000c7b0       ?AdvanceFrame@CNStimGratingPatch@@UAGJH@Z 0040d7b0 f   CNStimGratingPatch.obj
 0001:0000ca40       ?Draw@CNStimGratingPatch@@UAGJPAUINStimEngine@@@Z 0040da40 f   CNStimGratingPatch.obj
 0001:0000d440       ?Init@CNStimGratingPatch@@UAGJPAUINStimEngine@@@Z 0040e440 f   CNStimGratingPatch.obj
 0001:0000e5d0       ?Reset@CNStimGratingPatch@@UAGJPAUINStimEngine@@@Z 0040f5d0 f   CNStimGratingPatch.obj
 0001:0000e6c0       ?SetParam@CNStimGratingPatch@@UAGJPAE0@Z 0040f6c0 f   CNStimGratingPatch.obj
 0001:0000e830       ??1?$CSmartPtr@UIDirect3DTexture9@@@@UAE@XZ 0040f830 f i CNStimGratingPatch.obj
 0001:0000e8c0       ??C?$CSmartPtr@UIDirect3DTexture9@@@@QBEPAUIDirect3DTexture9@@XZ 0040f8c0 f i CNStimGratingPatch.obj
 0001:0000e8f0       ??1?$CSmartPtr@UIDirect3DVertexBuffer9@@@@UAE@XZ 0040f8f0 f i CNStimGratingPatch.obj
 0001:0000e980       ??C?$CSmartPtr@UIDirect3DVertexBuffer9@@@@QBEPAUIDirect3DVertexBuffer9@@XZ 0040f980 f i CNStimGratingPatch.obj
 0001:0000e9b0       ??_G?$CSmartPtr@UIDirect3DTexture9@@@@UAEPAXI@Z 0040f9b0 f i CNStimGratingPatch.obj
 0001:0000e9b0       ??_E?$CSmartPtr@UIDirect3DTexture9@@@@UAEPAXI@Z 0040f9b0 f i CNStimGratingPatch.obj
 0001:0000ea10       ??_E?$CSmartPtr@UIDirect3DVertexBuffer9@@@@UAEPAXI@Z 0040fa10 f i CNStimGratingPatch.obj
 0001:0000ea10       ??_G?$CSmartPtr@UIDirect3DVertexBuffer9@@@@UAEPAXI@Z 0040fa10 f i CNStimGratingPatch.obj
 0001:0000ea70       ?SetUnit@CNStimIntPatchParam@@QAEXPBD@Z 0040fa70 f i CNStimGratingPatch.obj
 0001:0000eac0       ??4CDirect3DSurface@@QAEAAV0@ABV0@@Z 0040fac0 f i CNStimGratingPatch.obj
 0001:0000eb10       ?IsNull@CDirect3DTexture@@QAE_NXZ 0040fb10 f i CNStimGratingPatch.obj
 0001:0000eb50       ?IsNull@?$CSmartPtr@UIDirect3DTexture9@@@@QBE?B_NXZ 0040fb50 f i CNStimGratingPatch.obj
 0001:0000eb80       ?GetDirect3DTexture@CDirect3DTexture@@QAEPAUIDirect3DTexture9@@XZ 0040fb80 f i CNStimGratingPatch.obj
 0001:0000ebc0       ?GetPtr@?$CSmartPtr@UIDirect3DTexture9@@@@QBEPAUIDirect3DTexture9@@XZ 0040fbc0 f i CNStimGratingPatch.obj
 0001:0000ebf0       ??CCDirect3DTexture@@QAE?AV?$CSmartPtr@UIDirect3DTexture9@@@@XZ 0040fbf0 f i CNStimGratingPatch.obj
 0001:0000ec50       ??0?$CSmartPtr@UIDirect3DTexture9@@@@QAE@ABV0@@Z 0040fc50 f i CNStimGratingPatch.obj
 0001:0000ecb0       ??4?$CSmartPtr@UIDirect3DTexture9@@@@QAEAAV0@ABV0@@Z 0040fcb0 f i CNStimGratingPatch.obj
 0001:0000ed00       ??4?$CSmartPtr@UIDirect3DTexture9@@@@QAEPAUIUnknown@@PAU1@@Z 0040fd00 f i CNStimGratingPatch.obj
 0001:0000edc0       ??4CDirect3DTexture@@QAEAAV0@ABV0@@Z 0040fdc0 f i CNStimGratingPatch.obj
 0001:0000ee10       ?GetDirect3DVertexBuffer@CDirect3DVertexBuffer@@QAEPAUIDirect3DVertexBuffer9@@XZ 0040fe10 f i CNStimGratingPatch.obj
 0001:0000ee50       ?GetPtr@?$CSmartPtr@UIDirect3DVertexBuffer9@@@@QBEPAUIDirect3DVertexBuffer9@@XZ 0040fe50 f i CNStimGratingPatch.obj
 0001:0000ee80       ??CCDirect3DVertexBuffer@@QAE?AV?$CSmartPtr@UIDirect3DVertexBuffer9@@@@XZ 0040fe80 f i CNStimGratingPatch.obj
 0001:0000eee0       ??0?$CSmartPtr@UIDirect3DVertexBuffer9@@@@QAE@ABV0@@Z 0040fee0 f i CNStimGratingPatch.obj
 0001:0000ef40       ??4?$CSmartPtr@UIDirect3DVertexBuffer9@@@@QAEAAV0@ABV0@@Z 0040ff40 f i CNStimGratingPatch.obj
 0001:0000ef90       ??4?$CSmartPtr@UIDirect3DVertexBuffer9@@@@QAEPAUIUnknown@@PAU1@@Z 0040ff90 f i CNStimGratingPatch.obj
 0001:0000f050       ??4CDirect3DVertexBuffer@@QAEAAV0@ABV0@@Z 00410050 f i CNStimGratingPatch.obj
 0001:0000f0a0       ?GetType@CNStimGratingPatch@@UAGJPAPAE@Z 004100a0 f i CNStimGratingPatch.obj
 0001:0000f0e0       ?GetParamDataPtr@CNStimFloatPatchParam@@QAEPAMXZ 004100e0 f i CNStimGratingPatch.obj
 0001:0000f110       ?SetUnit@CNStimFloatPatchParam@@QAEXPBD@Z 00410110 f i CNStimGratingPatch.obj
 0001:0000f160       ??0CNStimIntArrayPatchParam@@QAE@XZ 00410160 f   CNStimIntArrayPatchParam.obj
 0001:0000f1c0       ??_ECNStimIntArrayPatchParam@@UAEPAXI@Z 004101c0 f i CNStimIntArrayPatchParam.obj
 0001:0000f1c0       ??_GCNStimIntArrayPatchParam@@UAEPAXI@Z 004101c0 f i CNStimIntArrayPatchParam.obj
 0001:0000f220       ??1CNStimIntArrayPatchParam@@UAE@XZ 00410220 f   CNStimIntArrayPatchParam.obj
 0001:0000f2b0       ?GetParamType@CNStimIntArrayPatchParam@@UAGJPAPAE@Z 004102b0 f   CNStimIntArrayPatchParam.obj
 0001:0000f2e0       ?GetSize@CNStimIntArrayPatchParam@@UAGJPAK@Z 004102e0 f   CNStimIntArrayPatchParam.obj
 0001:0000f320       ?GetByte@CNStimIntArrayPatchParam@@UAGJHPAE@Z 00410320 f   CNStimIntArrayPatchParam.obj
 0001:0000f360       ?GetRawData@CNStimIntArrayPatchParam@@UAGJPAPAE@Z 00410360 f   CNStimIntArrayPatchParam.obj
 0001:0000f390       ?SetParamString@CNStimIntArrayPatchParam@@UAGJPAE@Z 00410390 f   CNStimIntArrayPatchParam.obj
 0001:0000f520       ??0CNStimIntPatchParam@@QAE@XZ 00410520 f   CNStimIntPatchParam.obj
 0001:0000f580       ??_ECNStimIntPatchParam@@UAEPAXI@Z 00410580 f i CNStimIntPatchParam.obj
 0001:0000f580       ??_GCNStimIntPatchParam@@UAEPAXI@Z 00410580 f i CNStimIntPatchParam.obj
 0001:0000f5e0       ??1CNStimIntPatchParam@@UAE@XZ 004105e0 f   CNStimIntPatchParam.obj
 0001:0000f620       ?GetParamType@CNStimIntPatchParam@@UAGJPAPAE@Z 00410620 f   CNStimIntPatchParam.obj
 0001:0000f660       ?GetParamInt@CNStimIntPatchParam@@UAGJPAH@Z 00410660 f   CNStimIntPatchParam.obj
 0001:0000f6a0       ?SetParamInt@CNStimIntPatchParam@@UAGJH@Z 004106a0 f   CNStimIntPatchParam.obj
 0001:0000f6d0       ?SetParamString@CNStimIntPatchParam@@UAGJPAE@Z 004106d0 f i CNStimIntPatchParam.obj
 0001:0000f800       ??0CNStimLeechAtom@@QAE@XZ 00410800 f   CNStimLeechAtom.obj
 0001:0000f8a0       ??_GCNStimLeechAtom@@UAEPAXI@Z 004108a0 f i CNStimLeechAtom.obj
 0001:0000f8a0       ??_ECNStimLeechAtom@@UAEPAXI@Z 004108a0 f i CNStimLeechAtom.obj
 0001:0000f900       ??1CNStimLeechAtom@@UAE@XZ 00410900 f   CNStimLeechAtom.obj
 0001:0000f990       ??0?$CList@PAULeechParamCtrlItem@@PAU1@@@QAE@H@Z 00410990 f i CNStimLeechAtom.obj
 0001:0000f9e0       ??1?$CList@PAULeechParamCtrlItem@@PAU1@@@UAE@XZ 004109e0 f i CNStimLeechAtom.obj
 0001:0000fa20       ??_G?$CList@PAULeechParamCtrlItem@@PAU1@@@UAEPAXI@Z 00410a20 f i CNStimLeechAtom.obj
 0001:0000fa20       ??_E?$CList@PAULeechParamCtrlItem@@PAU1@@@UAEPAXI@Z 00410a20 f i CNStimLeechAtom.obj
 0001:0000fa80       ?RemoveAll@?$CList@PAULeechParamCtrlItem@@PAU1@@@QAEXXZ 00410a80 f i CNStimLeechAtom.obj
 0001:0000fad0       ?IsEmpty@?$CList@PAULeechParamCtrlItem@@PAU1@@@QBE_NXZ 00410ad0 f i CNStimLeechAtom.obj
 0001:0000fb20       ?RemoveHead@?$CList@PAULeechParamCtrlItem@@PAU1@@@QAEPAULeechParamCtrlItem@@XZ 00410b20 f i CNStimLeechAtom.obj
 0001:0000fb90       ?GetData@?$CListNode@PAULeechParamCtrlItem@@PAU1@@@QAEAAPAULeechParamCtrlItem@@XZ 00410b90 f i CNStimLeechAtom.obj
 0001:0000fbc0       ?RemoveAt@?$CList@PAULeechParamCtrlItem@@PAU1@@@QAEXPAX@Z 00410bc0 f i CNStimLeechAtom.obj
 0001:0000fc60       ?GetNext@?$CListNode@PAULeechParamCtrlItem@@PAU1@@@QBEPAV1@XZ 00410c60 f i CNStimLeechAtom.obj
 0001:0000fc90       ??_G?$CListNode@PAULeechParamCtrlItem@@PAU1@@@QAEPAXI@Z 00410c90 f i CNStimLeechAtom.obj
 0001:0000fcf0       ??1?$CListNode@PAULeechParamCtrlItem@@PAU1@@@QAE@XZ 00410cf0 f i CNStimLeechAtom.obj
 0001:0000fd30       ?GetPrev@?$CListNode@PAULeechParamCtrlItem@@PAU1@@@QAEPAV1@XZ 00410d30 f i CNStimLeechAtom.obj
 0001:0000fd60       ?Unlink@?$CListNode@PAULeechParamCtrlItem@@PAU1@@@QAEXXZ 00410d60 f i CNStimLeechAtom.obj
 0001:0000fdc0       ?Exec@CNStimLeechAtom@@UAGJPAUINStimEngine@@@Z 00410dc0 f i CNStimLeechAtom.obj
 0001:0000fe70       ?GetHeadPosition@?$CList@PAULeechParamCtrlItem@@PAU1@@@QAEPAXXZ 00410e70 f i CNStimLeechAtom.obj
 0001:0000fea0       ?GetNext@?$CList@PAULeechParamCtrlItem@@PAU1@@@QAEAAPAULeechParamCtrlItem@@AAPAX@Z 00410ea0 f i CNStimLeechAtom.obj
 0001:0000fef0       ?Reset@CNStimLeechAtom@@UAGJPAUINStimEngine@@@Z 00410ef0 f i CNStimLeechAtom.obj
 0001:0000ff20       ?Init@CNStimLeechAtom@@UAGJPAUINStimEngine@@@Z 00410f20 f i CNStimLeechAtom.obj
 0001:0000ffe0       ?GetParamDataPtr@CNStimStringPatchParam@@QAEPADXZ 00410fe0 f i CNStimLeechAtom.obj
 0001:00010010       ?SetParam@CNStimLeechAtom@@UAGJPAE0@Z 00411010 f i CNStimLeechAtom.obj
 0001:00010110       ?AddTail@?$CList@PAULeechParamCtrlItem@@PAU1@@@QAEPAXPAULeechParamCtrlItem@@@Z 00411110 f i CNStimLeechAtom.obj
 0001:00010190       ?AllocNode@?$CList@PAULeechParamCtrlItem@@PAU1@@@QAEPAV?$CListNode@PAULeechParamCtrlItem@@PAU1@@@PAULeechParamCtrlItem@@@Z 00411190 f i CNStimLeechAtom.obj
 0001:00010230       ?LinkAfter@?$CListNode@PAULeechParamCtrlItem@@PAU1@@@QAEXPAV1@@Z 00411230 f i CNStimLeechAtom.obj
 0001:00010290       ??0?$CListNode@PAULeechParamCtrlItem@@PAU1@@@QAE@PAULeechParamCtrlItem@@@Z 00411290 f i CNStimLeechAtom.obj
 0001:000102e0       ?GetType@CNStimLeechAtom@@UAGJPAPAE@Z 004112e0 f i CNStimLeechAtom.obj
 0001:00010320       ??0LeechParamCtrlItem@@QAE@XZ 00411320 f i CNStimLeechAtom.obj
 0001:000103a0       ??0CNStimCtrlCmd@@QAE@XZ   004113a0 f   CNStimListCmd.obj
 0001:00010440       ??_GCNStimCtrlCmd@@UAEPAXI@Z 00411440 f i CNStimListCmd.obj
 0001:00010440       ??_ECNStimCtrlCmd@@UAEPAXI@Z 00411440 f i CNStimListCmd.obj
 0001:000104a0       ??1CNStimCtrlCmd@@UAE@XZ   004114a0 f   CNStimListCmd.obj
 0001:000104d0       ?AddRef@CNStimCtrlCmd@@UAGKXZ 004114d0 f   CNStimListCmd.obj
 0001:00010520       ?QueryInterface@CNStimCtrlCmd@@UAGJABU_GUID@@PAPAX@Z 00411520 f   CNStimListCmd.obj
 0001:000105f0       ?Release@CNStimCtrlCmd@@UAGKXZ 004115f0 f   CNStimListCmd.obj
 0001:00010680       ?IsCmd@CNStimCtrlCmd@@UAGJPAE@Z 00411680 f   CNStimListCmd.obj
 0001:00010940       ?Help@CNStimCtrlCmd@@UAGJPAEPAUINStimApp@@PAUIPort@@@Z 00411940 f   CNStimListCmd.obj
 0001:00010a50       ?Exec@CNStimCtrlCmd@@UAGJPAEPAUINStimApp@@PAUIPort@@@Z 00411a50 f   CNStimListCmd.obj
 0001:00011f50       ??0NStimSequenceItemParam@@QAE@XZ 00412f50 f i CNStimListCmd.obj
 0001:00011fd0       ??0?$CList@UNStimSequenceItemParam@@U1@@@QAE@H@Z 00412fd0 f i CNStimListCmd.obj
 0001:00012020       ??1?$CList@UNStimSequenceItemParam@@U1@@@UAE@XZ 00413020 f i CNStimListCmd.obj
 0001:00012060       ?AddTail@?$CList@UNStimSequenceItemParam@@U1@@@QAEPAXUNStimSequenceItemParam@@@Z 00413060 f i CNStimListCmd.obj
 0001:00012130       ??_G?$CList@UNStimSequenceItemParam@@U1@@@UAEPAXI@Z 00413130 f i CNStimListCmd.obj
 0001:00012130       ??_E?$CList@UNStimSequenceItemParam@@U1@@@UAEPAXI@Z 00413130 f i CNStimListCmd.obj
 0001:00012190       ?RemoveAll@?$CList@UNStimSequenceItemParam@@U1@@@QAEXXZ 00413190 f i CNStimListCmd.obj
 0001:000121f0       ?AllocNode@?$CList@UNStimSequenceItemParam@@U1@@@QAEPAV?$CListNode@UNStimSequenceItemParam@@U1@@@UNStimSequenceItemParam@@@Z 004131f0 f i CNStimListCmd.obj
 0001:000122b0       ?LinkAfter@?$CListNode@UNStimSequenceItemParam@@U1@@@QAEXPAV1@@Z 004132b0 f i CNStimListCmd.obj
 0001:00012310       ?IsEmpty@?$CList@UNStimSequenceItemParam@@U1@@@QBE_NXZ 00413310 f i CNStimListCmd.obj
 0001:00012360       ?RemoveHead@?$CList@UNStimSequenceItemParam@@U1@@@QAE?AUNStimSequenceItemParam@@XZ 00413360 f i CNStimListCmd.obj
 0001:00012430       ?GetData@?$CListNode@UNStimSequenceItemParam@@U1@@@QAEAAUNStimSequenceItemParam@@XZ 00413430 f i CNStimListCmd.obj
 0001:00012460       ??0?$CListNode@UNStimSequenceItemParam@@U1@@@QAE@UNStimSequenceItemParam@@@Z 00413460 f i CNStimListCmd.obj
 0001:00012500       ??4NStimSequenceItemParam@@QAEAAU0@ABU0@@Z 00413500 f i CNStimListCmd.obj
 0001:00012560       ?RemoveAt@?$CList@UNStimSequenceItemParam@@U1@@@QAEXPAX@Z 00413560 f i CNStimListCmd.obj
 0001:00012600       ?GetNext@?$CListNode@UNStimSequenceItemParam@@U1@@@QBEPAV1@XZ 00413600 f i CNStimListCmd.obj
 0001:00012630       ??_G?$CListNode@UNStimSequenceItemParam@@U1@@@QAEPAXI@Z 00413630 f i CNStimListCmd.obj
 0001:00012690       ??1?$CListNode@UNStimSequenceItemParam@@U1@@@QAE@XZ 00413690 f i CNStimListCmd.obj
 0001:00012700       ?GetPrev@?$CListNode@UNStimSequenceItemParam@@U1@@@QAEPAV1@XZ 00413700 f i CNStimListCmd.obj
 0001:00012730       ?Unlink@?$CListNode@UNStimSequenceItemParam@@U1@@@QAEXXZ 00413730 f i CNStimListCmd.obj
 0001:00012790       ??0NStimSequenceItemParam@@QAE@ABU0@@Z 00413790 f i CNStimListCmd.obj
 0001:00012810       ??1NStimSequenceItemParam@@QAE@XZ 00413810 f i CNStimListCmd.obj
 0001:00012880       ??0CNStimLptAtom@@QAE@XZ   00413880 f   CNStimLptAtom.obj
 0001:00012b10       ??_GCNStimLptAtom@@UAEPAXI@Z 00413b10 f i CNStimLptAtom.obj
 0001:00012b10       ??_ECNStimLptAtom@@UAEPAXI@Z 00413b10 f i CNStimLptAtom.obj
 0001:00012b70       ??1CNStimLptAtom@@UAE@XZ   00413b70 f   CNStimLptAtom.obj
 0001:00012bf0       ?Exec@CNStimLptAtom@@UAGJPAUINStimEngine@@@Z 00413bf0 f i CNStimLptAtom.obj
 0001:00012c60       ?Init@CNStimLptAtom@@UAGJPAUINStimEngine@@@Z 00413c60 f i CNStimLptAtom.obj
 0001:00012cb0       ?Reset@CNStimLptAtom@@UAGJPAUINStimEngine@@@Z 00413cb0 f i CNStimLptAtom.obj
 0001:00012ce0       ?GetType@CNStimLptAtom@@UAGJPAPAE@Z 00413ce0 f i CNStimLptAtom.obj
 0001:00012d20       ??0CNStimLptCmd@@QAE@XZ    00413d20 f   CNStimLptCmd.obj
 0001:00012d70       ??_GCNStimLptCmd@@UAEPAXI@Z 00413d70 f i CNStimLptCmd.obj
 0001:00012d70       ??_ECNStimLptCmd@@UAEPAXI@Z 00413d70 f i CNStimLptCmd.obj
 0001:00012dd0       ??1CNStimLptCmd@@UAE@XZ    00413dd0 f   CNStimLptCmd.obj
 0001:00012e00       ?AddRef@CNStimLptCmd@@UAGKXZ 00413e00 f   CNStimLptCmd.obj
 0001:00012e50       ?QueryInterface@CNStimLptCmd@@UAGJABU_GUID@@PAPAX@Z 00413e50 f   CNStimLptCmd.obj
 0001:00012f20       ?Release@CNStimLptCmd@@UAGKXZ 00413f20 f   CNStimLptCmd.obj
 0001:00012fb0       ?IsCmd@CNStimLptCmd@@UAGJPAE@Z 00413fb0 f   CNStimLptCmd.obj
 0001:00013000       ?Exec@CNStimLptCmd@@UAGJPAEPAUINStimApp@@PAUIPort@@@Z 00414000 f   CNStimLptCmd.obj
 0001:00013250       ?Help@CNStimLptCmd@@UAGJPAEPAUINStimApp@@PAUIPort@@@Z 00414250 f i CNStimLptCmd.obj
 0001:00013280       ??0CNStimOIGratingPatch@@QAE@XZ 00414280 f   CNStimOIGratingPatch.obj
 0001:00013720       ??_ECNStimOIGratingPatch@@UAEPAXI@Z 00414720 f i CNStimOIGratingPatch.obj
 0001:00013720       ??_GCNStimOIGratingPatch@@UAEPAXI@Z 00414720 f i CNStimOIGratingPatch.obj
 0001:00013780       ??1CNStimOIGratingPatch@@UAE@XZ 00414780 f   CNStimOIGratingPatch.obj
 0001:00013820       ?AdvanceFrame@CNStimOIGratingPatch@@UAGJH@Z 00414820 f   CNStimOIGratingPatch.obj
 0001:00013950       ?AdvanceCondFrame@CNStimOIGratingPatch@@AAEXPAUCondDesc@1@@Z 00414950 f   CNStimOIGratingPatch.obj
 0001:00013a80       ?Draw@CNStimOIGratingPatch@@UAGJPAUINStimEngine@@@Z 00414a80 f   CNStimOIGratingPatch.obj
 0001:00013b10       ?DrawCond@CNStimOIGratingPatch@@AAEXPAUINStimEngine@@PAUCondDesc@1@_N@Z 00414b10 f   CNStimOIGratingPatch.obj
 0001:00014340       ?ResetCond@CNStimOIGratingPatch@@AAEXPAUCondDesc@1@@Z 00415340 f   CNStimOIGratingPatch.obj
 0001:00014380       ?InitCond@CNStimOIGratingPatch@@AAEXPAUINStimEngine@@PAUCondDesc@1@@Z 00415380 f   CNStimOIGratingPatch.obj
 0001:00014750       ?Init@CNStimOIGratingPatch@@UAGJPAUINStimEngine@@@Z 00415750 f   CNStimOIGratingPatch.obj
 0001:00015570       ?Reset@CNStimOIGratingPatch@@UAGJPAUINStimEngine@@@Z 00416570 f   CNStimOIGratingPatch.obj
 0001:00015620       ?SetParam@CNStimOIGratingPatch@@UAGJPAE0@Z 00416620 f   CNStimOIGratingPatch.obj
 0001:00016110       ??_ECondDesc@CNStimOIGratingPatch@@QAEPAXI@Z 00417110 f i CNStimOIGratingPatch.obj
 0001:000161b0       ??0CondDesc@CNStimOIGratingPatch@@QAE@XZ 004171b0 f i CNStimOIGratingPatch.obj
 0001:000161f0       ??1CondDesc@CNStimOIGratingPatch@@QAE@XZ 004171f0 f i CNStimOIGratingPatch.obj
 0001:00016230       ?GetParamDataPtr@CNStimIntArrayPatchParam@@QAEPAPAHXZ 00417230 f i CNStimOIGratingPatch.obj
 0001:00016260       ?GetParamSizePtr@CNStimIntArrayPatchParam@@QAEPAHXZ 00417260 f i CNStimOIGratingPatch.obj
 0001:00016290       ?GetType@CNStimOIGratingPatch@@UAGJPAPAE@Z 00417290 f i CNStimOIGratingPatch.obj
 0001:000162d0       ??0CNStimPatch@@QAE@XZ     004172d0 f   CNStimPatch.obj
 0001:000165e0       ??_GCNStimPatch@@UAEPAXI@Z 004175e0 f i CNStimPatch.obj
 0001:000165e0       ??_ECNStimPatch@@UAEPAXI@Z 004175e0 f i CNStimPatch.obj
 0001:00016640       ??0INStimPatch@@QAE@XZ     00417640 f i CNStimPatch.obj
 0001:00016680       ??1CNStimPatch@@UAE@XZ     00417680 f   CNStimPatch.obj
 0001:00016710       ?AddRef@CNStimPatch@@UAGKXZ 00417710 f   CNStimPatch.obj
 0001:00016760       ?QueryInterface@CNStimPatch@@UAGJABU_GUID@@PAPAX@Z 00417760 f   CNStimPatch.obj
 0001:00016830       ?Release@CNStimPatch@@UAGKXZ 00417830 f   CNStimPatch.obj
 0001:000168c0       ?GetParamCount@CNStimPatch@@UAGJPAH@Z 004178c0 f   CNStimPatch.obj
 0001:00016900       ?GetParam@CNStimPatch@@UAGJHPAPAUINStimParam@@@Z 00417900 f   CNStimPatch.obj
 0001:00016960       ??0CNStimPatchCmd@@QAE@XZ  00417960 f   CNStimPatchCmd.obj
 0001:000169b0       ??_ECNStimPatchCmd@@UAEPAXI@Z 004179b0 f i CNStimPatchCmd.obj
 0001:000169b0       ??_GCNStimPatchCmd@@UAEPAXI@Z 004179b0 f i CNStimPatchCmd.obj
 0001:00016a10       ??1CNStimPatchCmd@@UAE@XZ  00417a10 f   CNStimPatchCmd.obj
 0001:00016a40       ?AddRef@CNStimPatchCmd@@UAGKXZ 00417a40 f   CNStimPatchCmd.obj
 0001:00016a90       ?QueryInterface@CNStimPatchCmd@@UAGJABU_GUID@@PAPAX@Z 00417a90 f   CNStimPatchCmd.obj
 0001:00016b60       ?Release@CNStimPatchCmd@@UAGKXZ 00417b60 f   CNStimPatchCmd.obj
 0001:00016bf0       ?IsCmd@CNStimPatchCmd@@UAGJPAE@Z 00417bf0 f   CNStimPatchCmd.obj
 0001:00016c40       ?Exec@CNStimPatchCmd@@UAGJPAEPAUINStimApp@@PAUIPort@@@Z 00417c40 f   CNStimPatchCmd.obj
 0001:00016e80       ?Help@CNStimPatchCmd@@UAGJPAEPAUINStimApp@@PAUIPort@@@Z 00417e80 f i CNStimPatchCmd.obj
 0001:00016eb0       ??0CNStimPatchParam@@QAE@XZ 00417eb0 f   CNStimPatchParam.obj
 0001:00016f10       ??_ECNStimPatchParam@@UAEPAXI@Z 00417f10 f i CNStimPatchParam.obj
 0001:00016f10       ??_GCNStimPatchParam@@UAEPAXI@Z 00417f10 f i CNStimPatchParam.obj
 0001:00016f70       ??0INStimParam@@QAE@XZ     00417f70 f i CNStimPatchParam.obj
 0001:00016fb0       ??1CNStimPatchParam@@UAE@XZ 00417fb0 f   CNStimPatchParam.obj
 0001:00017000       ?AddRef@CNStimPatchParam@@UAGKXZ 00418000 f   CNStimPatchParam.obj
 0001:00017050       ?QueryInterface@CNStimPatchParam@@UAGJABU_GUID@@PAPAX@Z 00418050 f   CNStimPatchParam.obj
 0001:00017120       ?Release@CNStimPatchParam@@UAGKXZ 00418120 f   CNStimPatchParam.obj
 0001:000171b0       ?GetParamType@CNStimPatchParam@@UAGJPAPAE@Z 004181b0 f i CNStimPatchParam.obj
 0001:000171e0       ?GetStimProfile@CNStimProfile@@SAPAV1@XZ 004181e0 f   CNStimProfile.obj
 0001:00017210       ??0CNStimProfile@@QAE@XZ   00418210 f   CNStimProfile.obj
 0001:000172b0       ??_ECNStimProfile@@UAEPAXI@Z 004182b0 f i CNStimProfile.obj
 0001:000172b0       ??_GCNStimProfile@@UAEPAXI@Z 004182b0 f i CNStimProfile.obj
 0001:00017310       ??0INStimProfile@@QAE@XZ   00418310 f i CNStimProfile.obj
 0001:00017350       ??1CNStimProfile@@UAE@XZ   00418350 f   CNStimProfile.obj
 0001:000173a0       ?AddRef@CNStimProfile@@UAGKXZ 004183a0 f   CNStimProfile.obj
 0001:000173f0       ?QueryInterface@CNStimProfile@@UAGJABU_GUID@@PAPAX@Z 004183f0 f   CNStimProfile.obj
 0001:000174c0       ?Release@CNStimProfile@@UAGKXZ 004184c0 f   CNStimProfile.obj
 0001:00017550       ?GetConversionFactor@CNStimProfile@@UAGNPBD@Z 00418550 f   CNStimProfile.obj
 0001:00017730       ?ConvertUnit@CNStimProfile@@UAGNNPBD0@Z 00418730 f   CNStimProfile.obj
 0001:000178a0       ?GetLogPath@CNStimProfile@@UAGJPAE@Z 004188a0 f i CNStimProfile.obj
 0001:000178f0       ?SetDefault@CNStimProfile@@UAGJXZ 004188f0 f i CNStimProfile.obj
 0001:00017a50       ?Load@CNStimProfile@@UAGJXZ 00418a50 f i CNStimProfile.obj
 0001:00017d40       ?Save@CNStimProfile@@UAGJXZ 00418d40 f i CNStimProfile.obj
 0001:00017fe0       ?IsFullscreen@CNStimProfile@@UAGJXZ 00418fe0 f i CNStimProfile.obj
 0001:00018020       ?GetTcpIpCmdPort@CNStimProfile@@UAGJPAK@Z 00419020 f i CNStimProfile.obj
 0001:00018060       ?GetTcpIpBindAddress@CNStimProfile@@UAGJPAPAE@Z 00419060 f i CNStimProfile.obj
 0001:00018090       ?MapXCoordinate@CNStimProfile@@UAGJPBEPAH@Z 00419090 f i CNStimProfile.obj
 0001:000180c0       ?MapYCoordinate@CNStimProfile@@UAGJPBEPAH@Z 004190c0 f i CNStimProfile.obj
 0001:000180f0       ?ShouldHideCursor@CNStimProfile@@UAGJXZ 004190f0 f i CNStimProfile.obj
 0001:00018130       ?GetGraphicsEngineThreadPriority@CNStimProfile@@UAGJPAH@Z 00419130 f i CNStimProfile.obj
 0001:00018170       ?GetLptSyncPortInfo@CNStimProfile@@UAGJPAH0000@Z 00419170 f i CNStimProfile.obj
 0001:000181e0       ?GetWindowedResolution@CNStimProfile@@UAGJPAH0@Z 004191e0 f i CNStimProfile.obj
 0001:00018230       ?GetFullscreenResolution@CNStimProfile@@UAGJPAH00@Z 00419230 f i CNStimProfile.obj
 0001:00018280       ??0CNStimSequence@@QAE@XZ  00419280 f   CNStimSequence.obj
 0001:00018330       ??_ECNStimSequence@@UAEPAXI@Z 00419330 f i CNStimSequence.obj
 0001:00018330       ??_GCNStimSequence@@UAEPAXI@Z 00419330 f i CNStimSequence.obj
 0001:00018390       ??1CNStimSequence@@UAE@XZ  00419390 f   CNStimSequence.obj
 0001:000184b0       ??_GNStimSequenceMarker@@QAEPAXI@Z 004194b0 f i CNStimSequence.obj
 0001:00018510       ??1NStimSequenceMarker@@QAE@XZ 00419510 f i CNStimSequence.obj
 0001:00018590       ?Reset@CNStimSequence@@QAEXXZ 00419590 f   CNStimSequence.obj
 0001:00018630       ?Compile@CNStimSequence@@QAEXPAUINStimEngine@@@Z 00419630 f   CNStimSequence.obj
 0001:00018cd0       ?AddSequenceMarker@CNStimSequence@@QAEXHHPAEH@Z 00419cd0 f   CNStimSequence.obj
 0001:00018e20       ??0NStimSequenceMarker@@QAE@XZ 00419e20 f i CNStimSequence.obj
 0001:00018ea0       ?AddSequenceMarker@CNStimSequence@@QAEXHHPAEPAV?$CList@UNStimSequenceItemParam@@U1@@@H@Z 00419ea0 f   CNStimSequence.obj
 0001:00019020       ?GetAtomList@CNStimSequence@@QAEXHPAPAV?$CList@PAUINStimAtom@@PAU1@@@PAUINStimEngine@@@Z 0041a020 f   CNStimSequence.obj
 0001:00019140       ?Clear@CNStimSequence@@QAEXXZ 0041a140 f   CNStimSequence.obj
 0001:000191c0       ?GetHeadPosition@?$CList@UNStimSequenceItemParam@@U1@@@QAEPAXXZ 0041a1c0 f i CNStimSequence.obj
 0001:000191f0       ?GetNext@?$CList@UNStimSequenceItemParam@@U1@@@QAEAAUNStimSequenceItemParam@@AAPAX@Z 0041a1f0 f i CNStimSequence.obj
 0001:00019240       ??0?$CList@UResetElement@@U1@@@QAE@H@Z 0041a240 f i CNStimSequence.obj
 0001:00019290       ??1?$CList@UResetElement@@U1@@@UAE@XZ 0041a290 f i CNStimSequence.obj
 0001:000192d0       ?AddTail@?$CList@UResetElement@@U1@@@QAEPAXUResetElement@@@Z 0041a2d0 f i CNStimSequence.obj
 0001:00019350       ?IsEmpty@?$CList@UResetElement@@U1@@@QBE_NXZ 0041a350 f i CNStimSequence.obj
 0001:000193a0       ?RemoveHead@?$CList@UResetElement@@U1@@@QAE?AUResetElement@@XZ 0041a3a0 f i CNStimSequence.obj
 0001:00019430       ??0?$CList@PAUNStimSequenceMarker@@PAU1@@@QAE@H@Z 0041a430 f i CNStimSequence.obj
 0001:00019480       ??1?$CList@PAUNStimSequenceMarker@@PAU1@@@UAE@XZ 0041a480 f i CNStimSequence.obj
 0001:000194c0       ?GetHeadPosition@?$CList@PAUNStimSequenceMarker@@PAU1@@@QAEPAXXZ 0041a4c0 f i CNStimSequence.obj
 0001:000194f0       ?GetTailPosition@?$CList@PAUNStimSequenceMarker@@PAU1@@@QAEPAXXZ 0041a4f0 f i CNStimSequence.obj
 0001:00019520       ?AddHead@?$CList@PAUNStimSequenceMarker@@PAU1@@@QAEPAXPAUNStimSequenceMarker@@@Z 0041a520 f i CNStimSequence.obj
 0001:000195a0       ?GetPrev@?$CList@PAUNStimSequenceMarker@@PAU1@@@QAEAAPAUNStimSequenceMarker@@AAPAX@Z 0041a5a0 f i CNStimSequence.obj
 0001:00019610       ?GetNext@?$CList@PAUNStimSequenceMarker@@PAU1@@@QAEAAPAUNStimSequenceMarker@@AAPAX@Z 0041a610 f i CNStimSequence.obj
 0001:00019660       ?AddTail@?$CList@PAUNStimSequenceMarker@@PAU1@@@QAEPAXPAUNStimSequenceMarker@@@Z 0041a660 f i CNStimSequence.obj
 0001:000196e0       ?InsertAfter@?$CList@PAUNStimSequenceMarker@@PAU1@@@QAEPAXPAXPAUNStimSequenceMarker@@@Z 0041a6e0 f i CNStimSequence.obj
 0001:000197a0       ?InsertBefore@?$CList@PAUNStimSequenceMarker@@PAU1@@@QAEPAXPAXPAUNStimSequenceMarker@@@Z 0041a7a0 f i CNStimSequence.obj
 0001:00019860       ?IsEmpty@?$CList@PAUNStimSequenceMarker@@PAU1@@@QBE_NXZ 0041a860 f i CNStimSequence.obj
 0001:000198b0       ?RemoveAt@?$CList@PAUNStimSequenceMarker@@PAU1@@@QAEXPAX@Z 0041a8b0 f i CNStimSequence.obj
 0001:00019950       ?RemoveHead@?$CList@PAUNStimSequenceMarker@@PAU1@@@QAEPAUNStimSequenceMarker@@XZ 0041a950 f i CNStimSequence.obj
 0001:000199c0       ??0?$CList@PAVCNStimCompiledSequenceMarker@@PAV1@@@QAE@H@Z 0041a9c0 f i CNStimSequence.obj
 0001:00019a10       ??1?$CList@PAVCNStimCompiledSequenceMarker@@PAV1@@@UAE@XZ 0041aa10 f i CNStimSequence.obj
 0001:00019a50       ?GetHeadPosition@?$CList@PAVCNStimCompiledSequenceMarker@@PAV1@@@QAEPAXXZ 0041aa50 f i CNStimSequence.obj
 0001:00019a80       ?GetNext@?$CList@PAVCNStimCompiledSequenceMarker@@PAV1@@@QAEAAPAVCNStimCompiledSequenceMarker@@AAPAX@Z 0041aa80 f i CNStimSequence.obj
 0001:00019ad0       ?AddTail@?$CList@PAVCNStimCompiledSequenceMarker@@PAV1@@@QAEPAXPAVCNStimCompiledSequenceMarker@@@Z 0041aad0 f i CNStimSequence.obj
 0001:00019b50       ?IsEmpty@?$CList@PAVCNStimCompiledSequenceMarker@@PAV1@@@QBE_NXZ 0041ab50 f i CNStimSequence.obj
 0001:00019ba0       ?RemoveHead@?$CList@PAVCNStimCompiledSequenceMarker@@PAV1@@@QAEPAVCNStimCompiledSequenceMarker@@XZ 0041aba0 f i CNStimSequence.obj
 0001:00019c10       ??_G?$CList@UResetElement@@U1@@@UAEPAXI@Z 0041ac10 f i CNStimSequence.obj
 0001:00019c10       ??_E?$CList@UResetElement@@U1@@@UAEPAXI@Z 0041ac10 f i CNStimSequence.obj
 0001:00019c70       ??_E?$CList@PAUNStimSequenceMarker@@PAU1@@@UAEPAXI@Z 0041ac70 f i CNStimSequence.obj
 0001:00019c70       ??_G?$CList@PAUNStimSequenceMarker@@PAU1@@@UAEPAXI@Z 0041ac70 f i CNStimSequence.obj
 0001:00019cd0       ??_G?$CListNode@PAUNStimSequenceMarker@@PAU1@@@QAEPAXI@Z 0041acd0 f i CNStimSequence.obj
 0001:00019d30       ??_G?$CList@PAVCNStimCompiledSequenceMarker@@PAV1@@@UAEPAXI@Z 0041ad30 f i CNStimSequence.obj
 0001:00019d30       ??_E?$CList@PAVCNStimCompiledSequenceMarker@@PAV1@@@UAEPAXI@Z 0041ad30 f i CNStimSequence.obj
 0001:00019d90       ?RemoveAt@?$CList@UResetElement@@U1@@@QAEXPAX@Z 0041ad90 f i CNStimSequence.obj
 0001:00019e30       ?RemoveAll@?$CList@UResetElement@@U1@@@QAEXXZ 0041ae30 f i CNStimSequence.obj
 0001:00019e80       ?AllocNode@?$CList@UResetElement@@U1@@@QAEPAV?$CListNode@UResetElement@@U1@@@UResetElement@@@Z 0041ae80 f i CNStimSequence.obj
 0001:00019f20       ?RemoveAll@?$CList@PAUNStimSequenceMarker@@PAU1@@@QAEXXZ 0041af20 f i CNStimSequence.obj
 0001:00019f70       ?AllocNode@?$CList@PAUNStimSequenceMarker@@PAU1@@@QAEPAV?$CListNode@PAUNStimSequenceMarker@@PAU1@@@PAUNStimSequenceMarker@@@Z 0041af70 f i CNStimSequence.obj
 0001:0001a010       ?RemoveAt@?$CList@PAVCNStimCompiledSequenceMarker@@PAV1@@@QAEXPAX@Z 0041b010 f i CNStimSequence.obj
 0001:0001a0b0       ?RemoveAll@?$CList@PAVCNStimCompiledSequenceMarker@@PAV1@@@QAEXXZ 0041b0b0 f i CNStimSequence.obj
 0001:0001a100       ?AllocNode@?$CList@PAVCNStimCompiledSequenceMarker@@PAV1@@@QAEPAV?$CListNode@PAVCNStimCompiledSequenceMarker@@PAV1@@@PAVCNStimCompiledSequenceMarker@@@Z 0041b100 f i CNStimSequence.obj
 0001:0001a1a0       ?LinkAfter@?$CListNode@UResetElement@@U1@@@QAEXPAV1@@Z 0041b1a0 f i CNStimSequence.obj
 0001:0001a200       ?GetNext@?$CListNode@UResetElement@@U1@@@QBEPAV1@XZ 0041b200 f i CNStimSequence.obj
 0001:0001a230       ?GetData@?$CListNode@UResetElement@@U1@@@QAEAAUResetElement@@XZ 0041b230 f i CNStimSequence.obj
 0001:0001a260       ??0?$CListNode@PAUNStimSequenceMarker@@PAU1@@@QAE@PAUNStimSequenceMarker@@@Z 0041b260 f i CNStimSequence.obj
 0001:0001a2b0       ??1?$CListNode@PAUNStimSequenceMarker@@PAU1@@@QAE@XZ 0041b2b0 f i CNStimSequence.obj
 0001:0001a2f0       ?LinkBefore@?$CListNode@PAUNStimSequenceMarker@@PAU1@@@QAEXPAV1@@Z 0041b2f0 f i CNStimSequence.obj
 0001:0001a370       ?LinkAfter@?$CListNode@PAUNStimSequenceMarker@@PAU1@@@QAEXPAV1@@Z 0041b370 f i CNStimSequence.obj
 0001:0001a3d0       ?GetNext@?$CListNode@PAUNStimSequenceMarker@@PAU1@@@QBEPAV1@XZ 0041b3d0 f i CNStimSequence.obj
 0001:0001a400       ?GetPrev@?$CListNode@PAUNStimSequenceMarker@@PAU1@@@QAEPAV1@XZ 0041b400 f i CNStimSequence.obj
 0001:0001a430       ?GetData@?$CListNode@PAUNStimSequenceMarker@@PAU1@@@QAEAAPAUNStimSequenceMarker@@XZ 0041b430 f i CNStimSequence.obj
 0001:0001a460       ?LinkAfter@?$CListNode@PAVCNStimCompiledSequenceMarker@@PAV1@@@QAEXPAV1@@Z 0041b460 f i CNStimSequence.obj
 0001:0001a4c0       ?GetNext@?$CListNode@PAVCNStimCompiledSequenceMarker@@PAV1@@@QBEPAV1@XZ 0041b4c0 f i CNStimSequence.obj
 0001:0001a4f0       ?GetData@?$CListNode@PAVCNStimCompiledSequenceMarker@@PAV1@@@QAEAAPAVCNStimCompiledSequenceMarker@@XZ 0041b4f0 f i CNStimSequence.obj
 0001:0001a520       ??_G?$CListNode@UResetElement@@U1@@@QAEPAXI@Z 0041b520 f i CNStimSequence.obj
 0001:0001a580       ??_G?$CListNode@PAVCNStimCompiledSequenceMarker@@PAV1@@@QAEPAXI@Z 0041b580 f i CNStimSequence.obj
 0001:0001a5e0       ??0?$CListNode@UResetElement@@U1@@@QAE@UResetElement@@@Z 0041b5e0 f i CNStimSequence.obj
 0001:0001a630       ??1?$CListNode@UResetElement@@U1@@@QAE@XZ 0041b630 f i CNStimSequence.obj
 0001:0001a670       ?GetPrev@?$CListNode@UResetElement@@U1@@@QAEPAV1@XZ 0041b670 f i CNStimSequence.obj
 0001:0001a6a0       ?Unlink@?$CListNode@PAUNStimSequenceMarker@@PAU1@@@QAEXXZ 0041b6a0 f i CNStimSequence.obj
 0001:0001a700       ??0?$CListNode@PAVCNStimCompiledSequenceMarker@@PAV1@@@QAE@PAVCNStimCompiledSequenceMarker@@@Z 0041b700 f i CNStimSequence.obj
 0001:0001a750       ??1?$CListNode@PAVCNStimCompiledSequenceMarker@@PAV1@@@QAE@XZ 0041b750 f i CNStimSequence.obj
 0001:0001a790       ?GetPrev@?$CListNode@PAVCNStimCompiledSequenceMarker@@PAV1@@@QAEPAV1@XZ 0041b790 f i CNStimSequence.obj
 0001:0001a7c0       ?Unlink@?$CListNode@UResetElement@@U1@@@QAEXXZ 0041b7c0 f i CNStimSequence.obj
 0001:0001a820       ?Unlink@?$CListNode@PAVCNStimCompiledSequenceMarker@@PAV1@@@QAEXXZ 0041b820 f i CNStimSequence.obj
 0001:0001a880       ??0CNStimCompiledSequenceMarker@@QAE@XZ 0041b880 f i CNStimSequence.obj
 0001:0001a910       ?GetFrameMarker@CNStimCompiledSequenceMarker@@QAEHXZ 0041b910 f i CNStimSequence.obj
 0001:0001a940       ?SetFrameMarker@CNStimCompiledSequenceMarker@@QAEXH@Z 0041b940 f i CNStimSequence.obj
 0001:0001a970       ?AddAtomA@CNStimCompiledSequenceMarker@@QAEXPAUINStimAtom@@@Z 0041b970 f i CNStimSequence.obj
 0001:0001a9d0       ?AddResetAtom@CNStimCompiledSequenceMarker@@QAEXUResetElement@@@Z 0041b9d0 f i CNStimSequence.obj
 0001:0001aa20       ?GetAtomList@CNStimCompiledSequenceMarker@@QAEPAV?$CList@PAUINStimAtom@@PAU1@@@XZ 0041ba20 f i CNStimSequence.obj
 0001:0001aa50       ?ApplyReset@CNStimCompiledSequenceMarker@@QAEXPAUINStimEngine@@@Z 0041ba50 f i CNStimSequence.obj
 0001:0001ab60       ?GetHeadPosition@?$CList@UResetElement@@U1@@@QAEPAXXZ 0041bb60 f i CNStimSequence.obj
 0001:0001ab90       ?GetNext@?$CList@UResetElement@@U1@@@QAEAAUResetElement@@AAPAX@Z 0041bb90 f i CNStimSequence.obj
 0001:0001abe0       ??_GCNStimCompiledSequenceMarker@@UAEPAXI@Z 0041bbe0 f i CNStimSequence.obj
 0001:0001abe0       ??_ECNStimCompiledSequenceMarker@@UAEPAXI@Z 0041bbe0 f i CNStimSequence.obj
 0001:0001ac40       ??1CNStimCompiledSequenceMarker@@UAE@XZ 0041bc40 f i CNStimSequence.obj
 0001:0001ad00       ??0CNStimSMGratingPatch@@QAE@XZ 0041bd00 f   CNStimSMGratingPatch.obj
 0001:0001b570       ??_ECNStimSMGratingPatch@@UAEPAXI@Z 0041c570 f i CNStimSMGratingPatch.obj
 0001:0001b570       ??_GCNStimSMGratingPatch@@UAEPAXI@Z 0041c570 f i CNStimSMGratingPatch.obj
 0001:0001b5d0       ??1CNStimSMGratingPatch@@UAE@XZ 0041c5d0 f   CNStimSMGratingPatch.obj
 0001:0001b6f0       ?AdvanceFrame@CNStimSMGratingPatch@@UAGJH@Z 0041c6f0 f   CNStimSMGratingPatch.obj
 0001:0001b7f0       ?Draw@CNStimSMGratingPatch@@UAGJPAUINStimEngine@@@Z 0041c7f0 f   CNStimSMGratingPatch.obj
 0001:0001c470       ?Init@CNStimSMGratingPatch@@UAGJPAUINStimEngine@@@Z 0041d470 f   CNStimSMGratingPatch.obj
 0001:0001d2b0       ?Reset@CNStimSMGratingPatch@@UAGJPAUINStimEngine@@@Z 0041e2b0 f   CNStimSMGratingPatch.obj
 0001:0001d360       ?SetParam@CNStimSMGratingPatch@@UAGJPAE0@Z 0041e360 f   CNStimSMGratingPatch.obj
 0001:0001dfb0       ?GetType@CNStimSMGratingPatch@@UAGJPAPAE@Z 0041efb0 f i CNStimSMGratingPatch.obj
 0001:0001dff0       ??0CNStimStringPatchParam@@QAE@XZ 0041eff0 f   CNStimStringPatchParam.obj
 0001:0001e050       ??_GCNStimStringPatchParam@@UAEPAXI@Z 0041f050 f i CNStimStringPatchParam.obj
 0001:0001e050       ??_ECNStimStringPatchParam@@UAEPAXI@Z 0041f050 f i CNStimStringPatchParam.obj
 0001:0001e0b0       ??1CNStimStringPatchParam@@UAE@XZ 0041f0b0 f   CNStimStringPatchParam.obj
 0001:0001e0f0       ?GetParamType@CNStimStringPatchParam@@UAGJPAPAE@Z 0041f0f0 f i CNStimStringPatchParam.obj
 0001:0001e120       ?SetParamString@CNStimStringPatchParam@@UAGJPAE@Z 0041f120 f i CNStimStringPatchParam.obj
 0001:0001e160       ??0CNStimTestGratingPatch@@QAE@XZ 0041f160 f   CNStimTestGratingPatch.obj
 0001:0001e810       ??_GCNStimTestGratingPatch@@UAEPAXI@Z 0041f810 f i CNStimTestGratingPatch.obj
 0001:0001e810       ??_ECNStimTestGratingPatch@@UAEPAXI@Z 0041f810 f i CNStimTestGratingPatch.obj
 0001:0001e870       ??1CNStimTestGratingPatch@@UAE@XZ 0041f870 f   CNStimTestGratingPatch.obj
 0001:0001e920       ?AdvanceFrame@CNStimTestGratingPatch@@UAGJH@Z 0041f920 f   CNStimTestGratingPatch.obj
 0001:0001ea20       ?Draw@CNStimTestGratingPatch@@UAGJPAUINStimEngine@@@Z 0041fa20 f   CNStimTestGratingPatch.obj
 0001:0001f830       ?Init@CNStimTestGratingPatch@@UAGJPAUINStimEngine@@@Z 00420830 f   CNStimTestGratingPatch.obj
 0001:00021720       ?Reset@CNStimTestGratingPatch@@UAGJPAUINStimEngine@@@Z 00422720 f   CNStimTestGratingPatch.obj
 0001:000217d0       ?GetType@CNStimTestGratingPatch@@UAGJPAPAE@Z 004227d0 f i CNStimTestGratingPatch.obj
 0001:00021810       ??0CNStimViewportAtom@@QAE@XZ 00422810 f   CNStimViewportAtom.obj
 0001:00021b80       ??_GCNStimViewportAtom@@UAEPAXI@Z 00422b80 f i CNStimViewportAtom.obj
 0001:00021b80       ??_ECNStimViewportAtom@@UAEPAXI@Z 00422b80 f i CNStimViewportAtom.obj
 0001:00021be0       ??1CNStimViewportAtom@@UAE@XZ 00422be0 f   CNStimViewportAtom.obj
 0001:00021c20       ?Exec@CNStimViewportAtom@@UAGJPAUINStimEngine@@@Z 00422c20 f i CNStimViewportAtom.obj
 0001:00021ce0       ?Reset@CNStimViewportAtom@@UAGJPAUINStimEngine@@@Z 00422ce0 f i CNStimViewportAtom.obj
 0001:00021d10       ?Init@CNStimViewportAtom@@UAGJPAUINStimEngine@@@Z 00422d10 f i CNStimViewportAtom.obj
 0001:00021d40       ?GetType@CNStimViewportAtom@@UAGJPAPAE@Z 00422d40 f i CNStimViewportAtom.obj
 0001:00021d72       _GetCurrentDirectoryA@8    00422d72 f   kernel32:KERNEL32.dll
 0001:00021d78       _WritePrivateProfileStringA@16 00422d78 f   kernel32:KERNEL32.dll
 0001:00021d7e       _GetPrivateProfileStringA@24 00422d7e f   kernel32:KERNEL32.dll
 0001:00021d84       _InterlockedIncrement@4    00422d84 f   kernel32:KERNEL32.dll
 0001:00021d8a       _InterlockedDecrement@4    00422d8a f   kernel32:KERNEL32.dll
 0001:00021d90       _OutputDebugStringA@4      00422d90 f   kernel32:KERNEL32.dll
 0001:00021d96       _CreateEventA@16           00422d96 f   kernel32:KERNEL32.dll
 0001:00021d9c       _CloseHandle@4             00422d9c f   kernel32:KERNEL32.dll
 0001:00021da2       _WaitForSingleObject@8     00422da2 f   kernel32:KERNEL32.dll
 0001:00021da8       _SetEvent@4                00422da8 f   kernel32:KERNEL32.dll
 0001:00021dae       _DebugBreak@0              00422dae f   kernel32:KERNEL32.dll
 0001:00021db4       _QueryPerformanceCounter@4 00422db4 f   kernel32:KERNEL32.dll
 0001:00021dba       _CreateDirectoryA@8        00422dba f   kernel32:KERNEL32.dll
 0001:00021dc0       _QueryPerformanceFrequency@4 00422dc0 f   kernel32:KERNEL32.dll
 0001:00021dc6       _SetThreadPriority@8       00422dc6 f   kernel32:KERNEL32.dll
 0001:00021dcc       _GetCurrentThread@0        00422dcc f   kernel32:KERNEL32.dll
 0001:00021dd2       _MessageBoxA@16            00422dd2 f   user32:USER32.dll
 0001:00021dd8       _DispatchMessageA@4        00422dd8 f   user32:USER32.dll
 0001:00021dde       _TranslateMessage@4        00422dde f   user32:USER32.dll
 0001:00021de4       _PeekMessageA@20           00422de4 f   user32:USER32.dll
 0001:00021dea       _ShowCursor@4              00422dea f   user32:USER32.dll
 0001:00021df0       _MessageBeep@4             00422df0 f   user32:USER32.dll
 0001:00021e00       ??0CDirect3DWnd@@QAE@XZ    00422e00 f   d3d:CDirect3DWnd.obj
 0001:00021e80       ??_ECDirect3DWnd@@UAEPAXI@Z 00422e80 f i d3d:CDirect3DWnd.obj
 0001:00021e80       ??_GCDirect3DWnd@@UAEPAXI@Z 00422e80 f i d3d:CDirect3DWnd.obj
 0001:00021ee0       ??1CDirect3DWnd@@UAE@XZ    00422ee0 f   d3d:CDirect3DWnd.obj
 0001:00021f60       ?RegisterClassA@CDirect3DWnd@@SAXXZ 00422f60 f   d3d:CDirect3DWnd.obj
 0001:00021ff0       ?Create@CDirect3DWnd@@QAE_NABVCDirect3D@@PBDKHHHHPAVCDialog@@PAUHMENU__@@@Z 00422ff0 f   d3d:CDirect3DWnd.obj
 0001:00022380       ??4CDirect3DDevice@@QAEAAV0@PAUIDirect3DDevice9@@@Z 00423380 f i d3d:CDirect3DWnd.obj
 0001:000223d0       ??CCDirect3D@@QBE?AV?$CSmartPtr@UIDirect3D9@@@@XZ 004233d0 f i d3d:CDirect3DWnd.obj
 0001:00022430       ?CreateFullscreen@CDirect3DWnd@@QAE_NABVCDirect3D@@PBDKHHHHW4_D3DFORMAT@@HPAVCDialog@@PAUHMENU__@@@Z 00423430 f   d3d:CDirect3DWnd.obj
 0001:000227a0       ?WindowProc@CDirect3DWnd@@UAEJPAUHWND__@@IIJ@Z 004237a0 f   d3d:CDirect3DWnd.obj
 0001:00022810       ??0?$CSmartPtr@UIDirect3D9@@@@QAE@ABV0@@Z 00423810 f i d3d:CDirect3DWnd.obj
 0001:00022870       ??1?$CSmartPtr@UIDirect3D9@@@@UAE@XZ 00423870 f i d3d:CDirect3DWnd.obj
 0001:00022900       ??4?$CSmartPtr@UIDirect3D9@@@@QAEAAV0@ABV0@@Z 00423900 f i d3d:CDirect3DWnd.obj
 0001:00022950       ??C?$CSmartPtr@UIDirect3D9@@@@QBEPAUIDirect3D9@@XZ 00423950 f i d3d:CDirect3DWnd.obj
 0001:00022980       ??_G?$CSmartPtr@UIDirect3D9@@@@UAEPAXI@Z 00423980 f i d3d:CDirect3DWnd.obj
 0001:00022980       ??_E?$CSmartPtr@UIDirect3D9@@@@UAEPAXI@Z 00423980 f i d3d:CDirect3DWnd.obj
 0001:000229e0       ??4?$CSmartPtr@UIDirect3D9@@@@QAEPAUIUnknown@@PAU1@@Z 004239e0 f i d3d:CDirect3DWnd.obj
 0001:00022aa0       ?GetPtr@?$CSmartPtr@UIDirect3D9@@@@QBEPAUIDirect3D9@@XZ 00423aa0 f i d3d:CDirect3DWnd.obj
 0001:00022ad0       ??0CDirect3DVertexBuffer@@QAE@XZ 00423ad0 f   d3d:CDirect3DVertexBuffer.obj
 0001:00022b20       ??_ECDirect3DVertexBuffer@@UAEPAXI@Z 00423b20 f i d3d:CDirect3DVertexBuffer.obj
 0001:00022b20       ??_GCDirect3DVertexBuffer@@UAEPAXI@Z 00423b20 f i d3d:CDirect3DVertexBuffer.obj
 0001:00022b80       ??1CDirect3DVertexBuffer@@UAE@XZ 00423b80 f   d3d:CDirect3DVertexBuffer.obj
 0001:00022bd0       ??0?$CSmartPtr@UIDirect3DVertexBuffer9@@@@QAE@PAUIDirect3DVertexBuffer9@@@Z 00423bd0 f i d3d:CDirect3DVertexBuffer.obj
 0001:00022c30       ??4?$CSmartPtr@UIDirect3DVertexBuffer9@@@@QAEPAUIDirect3DVertexBuffer9@@PAU1@@Z 00423c30 f i d3d:CDirect3DVertexBuffer.obj
 0001:00022cf0       ??0CDirect3DTexture@@QAE@XZ 00423cf0 f   d3d:CDirect3DTexture.obj
 0001:00022d80       ??_ECDirect3DTexture@@UAEPAXI@Z 00423d80 f i d3d:CDirect3DTexture.obj
 0001:00022d80       ??_GCDirect3DTexture@@UAEPAXI@Z 00423d80 f i d3d:CDirect3DTexture.obj
 0001:00022de0       ??1CDirect3DTexture@@UAE@XZ 00423de0 f   d3d:CDirect3DTexture.obj
 0001:00022e70       ??0?$CSmartPtr@UIDirect3DTexture9@@@@QAE@PAUIDirect3DTexture9@@@Z 00423e70 f i d3d:CDirect3DTexture.obj
 0001:00022ed0       ??4?$CSmartPtr@UIDirect3DTexture9@@@@QAEPAUIDirect3DTexture9@@PAU1@@Z 00423ed0 f i d3d:CDirect3DTexture.obj
 0001:00022f90       ??0CDirect3DDevice@@QAE@XZ 00423f90 f   d3d:CDirect3DDevice.obj
 0001:00022fe0       ??1CDirect3DDevice@@UAE@XZ 00423fe0 f   d3d:CDirect3DDevice.obj
 0001:00023030       ?CreateSurface@CDirect3DDevice@@QAE?AVCDirect3DSurface@@HHW4_D3DFORMAT@@W4_D3DPOOL@@@Z 00424030 f   d3d:CDirect3DDevice.obj
 0001:00023120       ??0CDirect3DSurface@@QAE@PAUIDirect3DSurface9@@@Z 00424120 f i d3d:CDirect3DDevice.obj
 0001:000231b0       ??0CDirect3DSurface@@QAE@ABV0@@Z 004241b0 f i d3d:CDirect3DDevice.obj
 0001:00023240       ??_GCDirect3DSurface@@UAEPAXI@Z 00424240 f i d3d:CDirect3DDevice.obj
 0001:00023240       ??_ECDirect3DSurface@@UAEPAXI@Z 00424240 f i d3d:CDirect3DDevice.obj
 0001:000232a0       ?CreateTexture@CDirect3DDevice@@QAE?AVCDirect3DTexture@@HHHKW4_D3DFORMAT@@W4_D3DPOOL@@@Z 004242a0 f   d3d:CDirect3DDevice.obj
 0001:00023540       ??0CDirect3DTexture@@QAE@PAUIDirect3DTexture9@@@Z 00424540 f i d3d:CDirect3DDevice.obj
 0001:000235d0       ??0CDirect3DTexture@@QAE@ABV0@@Z 004245d0 f i d3d:CDirect3DDevice.obj
 0001:00023660       ?CreateVertexBuffer@CDirect3DDevice@@QAE?AVCDirect3DVertexBuffer@@IKKW4_D3DPOOL@@@Z 00424660 f   d3d:CDirect3DDevice.obj
 0001:00023760       ??0CDirect3DVertexBuffer@@QAE@PAUIDirect3DVertexBuffer9@@@Z 00424760 f i d3d:CDirect3DDevice.obj
 0001:000237f0       ??0CDirect3DVertexBuffer@@QAE@ABV0@@Z 004247f0 f i d3d:CDirect3DDevice.obj
 0001:00023880       ??0?$CSmartPtr@UIDirect3DSurface9@@@@QAE@PAUIDirect3DSurface9@@@Z 00424880 f i d3d:CDirect3DDevice.obj
 0001:000238e0       ??4?$CSmartPtr@UIDirect3DSurface9@@@@QAEPAUIDirect3DSurface9@@PAU1@@Z 004248e0 f i d3d:CDirect3DDevice.obj
 0001:000239a0       ??0CDirect3D@@QAE@XZ       004249a0 f   d3d:CDirect3D.obj
 0001:00023a00       ??_GCDirect3D@@UAEPAXI@Z   00424a00 f i d3d:CDirect3D.obj
 0001:00023a00       ??_ECDirect3D@@UAEPAXI@Z   00424a00 f i d3d:CDirect3D.obj
 0001:00023a60       ??1CDirect3D@@UAE@XZ       00424a60 f   d3d:CDirect3D.obj
 0001:00023ab0       ?Init@CDirect3D@@QAE_NXZ   00424ab0 f   d3d:CDirect3D.obj
 0001:00023b90       ??0?$CSmartPtr@UIDirect3D9@@@@QAE@PAUIDirect3D9@@@Z 00424b90 f i d3d:CDirect3D.obj
 0001:00023bf0       ??4?$CSmartPtr@UIDirect3D9@@@@QAEPAUIDirect3D9@@PAU1@@Z 00424bf0 f i d3d:CDirect3D.obj
 0001:00023cb0       ?IsNull@?$CSmartPtr@UIDirect3D9@@@@QBE?B_NXZ 00424cb0 f i d3d:CDirect3D.obj
 0001:00023ce0       ??0CDirect3DSurface@@QAE@XZ 00424ce0 f   d3d:CDirect3DSurface.obj
 0001:00023d30       ??1CDirect3DSurface@@UAE@XZ 00424d30 f   d3d:CDirect3DSurface.obj
 0001:00023e80       ??0CGlobalDebug@@QAE@PBD@Z 00424e80 f   debug:CGlobalDebug.obj
 0001:00023f10       ??_GCGlobalDebug@@UAEPAXI@Z 00424f10 f i debug:CGlobalDebug.obj
 0001:00023f10       ??_ECGlobalDebug@@UAEPAXI@Z 00424f10 f i debug:CGlobalDebug.obj
 0001:00023f70       ?SetAppName@CGlobalDebug@@QAEXPBD@Z 00424f70 f   debug:CGlobalDebug.obj
 0001:00024010       ?SetSection@CGlobalDebug@@QAEXPBD@Z 00425010 f   debug:CGlobalDebug.obj
 0001:000240a0       ?SetLogPath@CGlobalDebug@@QAEXPBD@Z 004250a0 f   debug:CGlobalDebug.obj
 0001:000240f0       ??1CGlobalDebug@@UAE@XZ    004250f0 f   debug:CGlobalDebug.obj
 0001:000241d0       ?Purge@CGlobalDebug@@QAEXPBD@Z 004251d0 f   debug:CGlobalDebug.obj
 0001:000242e0       ?GetDebugFile@CGlobalDebug@@QAEPAU_iobuf@@PBD@Z 004252e0 f   debug:CGlobalDebug.obj
 0001:00024410       ?WriteDbgMsg@CGlobalDebug@@QAAXPBD0ZZ 00425410 f   debug:CGlobalDebug.obj
 0001:00024480       ?WriteDbgLine@CGlobalDebug@@QAAXPBD0ZZ 00425480 f   debug:CGlobalDebug.obj
 0001:00024500       ?WriteDbgBuff@CGlobalDebug@@QAEXPBDPADH@Z 00425500 f   debug:CGlobalDebug.obj
 0001:00024570       ?WriteDbgTxtBuff@CGlobalDebug@@QAEXPBDPADH@Z 00425570 f   debug:CGlobalDebug.obj
 0001:00024600       ??0?$CList@PAUDbgMsgFileContext@CGlobalDebug@@PAU12@@@QAE@H@Z 00425600 f i debug:CGlobalDebug.obj
 0001:00024650       ??1?$CList@PAUDbgMsgFileContext@CGlobalDebug@@PAU12@@@UAE@XZ 00425650 f i debug:CGlobalDebug.obj
 0001:00024690       ?GetHeadPosition@?$CList@PAUDbgMsgFileContext@CGlobalDebug@@PAU12@@@QAEPAXXZ 00425690 f i debug:CGlobalDebug.obj
 0001:000246c0       ?GetNext@?$CList@PAUDbgMsgFileContext@CGlobalDebug@@PAU12@@@QAEAAPAUDbgMsgFileContext@CGlobalDebug@@AAPAX@Z 004256c0 f i debug:CGlobalDebug.obj
 0001:00024710       ?AddTail@?$CList@PAUDbgMsgFileContext@CGlobalDebug@@PAU12@@@QAEPAXPAUDbgMsgFileContext@CGlobalDebug@@@Z 00425710 f i debug:CGlobalDebug.obj
 0001:00024790       ?RemoveAt@?$CList@PAUDbgMsgFileContext@CGlobalDebug@@PAU12@@@QAEXPAX@Z 00425790 f i debug:CGlobalDebug.obj
 0001:00024830       ??_E?$CList@PAUDbgMsgFileContext@CGlobalDebug@@PAU12@@@UAEPAXI@Z 00425830 f i debug:CGlobalDebug.obj
 0001:00024830       ??_G?$CList@PAUDbgMsgFileContext@CGlobalDebug@@PAU12@@@UAEPAXI@Z 00425830 f i debug:CGlobalDebug.obj
 0001:00024890       ??_G?$CListNode@PAUDbgMsgFileContext@CGlobalDebug@@PAU12@@@QAEPAXI@Z 00425890 f i debug:CGlobalDebug.obj
 0001:000248f0       ?RemoveAll@?$CList@PAUDbgMsgFileContext@CGlobalDebug@@PAU12@@@QAEXXZ 004258f0 f i debug:CGlobalDebug.obj
 0001:00024940       ?AllocNode@?$CList@PAUDbgMsgFileContext@CGlobalDebug@@PAU12@@@QAEPAV?$CListNode@PAUDbgMsgFileContext@CGlobalDebug@@PAU12@@@PAUDbgMsgFileContext@CGlobalDebug@@@Z 00425940 f i debug:CGlobalDebug.obj
 0001:000249e0       ??1?$CListNode@PAUDbgMsgFileContext@CGlobalDebug@@PAU12@@@QAE@XZ 004259e0 f i debug:CGlobalDebug.obj
 0001:00024a20       ?LinkAfter@?$CListNode@PAUDbgMsgFileContext@CGlobalDebug@@PAU12@@@QAEXPAV1@@Z 00425a20 f i debug:CGlobalDebug.obj
 0001:00024a80       ?GetNext@?$CListNode@PAUDbgMsgFileContext@CGlobalDebug@@PAU12@@@QBEPAV1@XZ 00425a80 f i debug:CGlobalDebug.obj
 0001:00024ab0       ?GetPrev@?$CListNode@PAUDbgMsgFileContext@CGlobalDebug@@PAU12@@@QAEPAV1@XZ 00425ab0 f i debug:CGlobalDebug.obj
 0001:00024ae0       ?GetData@?$CListNode@PAUDbgMsgFileContext@CGlobalDebug@@PAU12@@@QAEAAPAUDbgMsgFileContext@CGlobalDebug@@XZ 00425ae0 f i debug:CGlobalDebug.obj
 0001:00024b10       ?IsEmpty@?$CList@PAUDbgMsgFileContext@CGlobalDebug@@PAU12@@@QBE_NXZ 00425b10 f i debug:CGlobalDebug.obj
 0001:00024b60       ?RemoveHead@?$CList@PAUDbgMsgFileContext@CGlobalDebug@@PAU12@@@QAEPAUDbgMsgFileContext@CGlobalDebug@@XZ 00425b60 f i debug:CGlobalDebug.obj
 0001:00024bd0       ??0?$CListNode@PAUDbgMsgFileContext@CGlobalDebug@@PAU12@@@QAE@PAUDbgMsgFileContext@CGlobalDebug@@@Z 00425bd0 f i debug:CGlobalDebug.obj
 0001:00024c20       ?Unlink@?$CListNode@PAUDbgMsgFileContext@CGlobalDebug@@PAU12@@@QAEXXZ 00425c20 f i debug:CGlobalDebug.obj
 0001:00024c80       ??0CTcpIpServer@@QAE@XZ    00425c80 f   tcpip:CTcpIpServer.obj
 0001:00024de0       ??_GCTcpIpServer@@UAEPAXI@Z 00425de0 f i tcpip:CTcpIpServer.obj
 0001:00024de0       ??_ECTcpIpServer@@UAEPAXI@Z 00425de0 f i tcpip:CTcpIpServer.obj
 0001:00024e40       ??0ITcpIpServer@@QAE@XZ    00425e40 f i tcpip:CTcpIpServer.obj
 0001:00024e80       ??0IPortServer@@QAE@XZ     00425e80 f i tcpip:CTcpIpServer.obj
 0001:00024ec0       ??1CTcpIpServer@@UAE@XZ    00425ec0 f   tcpip:CTcpIpServer.obj
 0001:00024fa0       ?StaticThreadFunc@CTcpIpServer@@CGKPAX@Z 00425fa0 f   tcpip:CTcpIpServer.obj
 0001:00024ff0       ?ThreadFunc@CTcpIpServer@@AAEKXZ 00425ff0 f   tcpip:CTcpIpServer.obj
 0001:00025150       ?ForwardEvent@CTcpIpServer@@AAEXKKK@Z 00426150 f   tcpip:CTcpIpServer.obj
 0001:00025200       ?RegisterCallback@CTcpIpServer@@UAGJPAUIPortServerCallback@@@Z 00426200 f   tcpip:CTcpIpServer.obj
 0001:00025310       ?UnregisterCallback@CTcpIpServer@@UAGJPAUIPortServerCallback@@@Z 00426310 f   tcpip:CTcpIpServer.obj
 0001:00025440       ?Test@CTcpIpServer@@UAGJXZ 00426440 f i tcpip:CTcpIpServer.obj
 0001:00025470       ?IsStarted@CTcpIpServer@@UAGJXZ 00426470 f   tcpip:CTcpIpServer.obj
 0001:000254b0       ?Start@CTcpIpServer@@UAGJPBE@Z 004264b0 f   tcpip:CTcpIpServer.obj
 0001:000256e0       ?Stop@CTcpIpServer@@UAGJXZ 004266e0 f   tcpip:CTcpIpServer.obj
 0001:00025710       ?QueryInterface@CTcpIpServer@@UAGJABU_GUID@@PAPAX@Z 00426710 f   tcpip:CTcpIpServer.obj
 0001:000257b0       ?AddRef@CTcpIpServer@@UAGKXZ 004267b0 f   tcpip:CTcpIpServer.obj
 0001:00025800       ?Release@CTcpIpServer@@UAGKXZ 00426800 f   tcpip:CTcpIpServer.obj
 0001:00025890       ?CycleSocket@CTcpIpConnection@@AAEXXZ 00426890 f   tcpip:CTcpIpConnection.obj
 0001:00025910       ?ForwardEvent@CTcpIpConnection@@AAEXKKK@Z 00426910 f   tcpip:CTcpIpConnection.obj
 0001:000259c0       ??0CTcpIpConnection@@QAE@XZ 004269c0 f   tcpip:CTcpIpConnection.obj
 0001:00025b20       ??_ECTcpIpConnection@@UAEPAXI@Z 00426b20 f i tcpip:CTcpIpConnection.obj
 0001:00025b20       ??_GCTcpIpConnection@@UAEPAXI@Z 00426b20 f i tcpip:CTcpIpConnection.obj
 0001:00025b80       ??0ITcpIpConnection@@QAE@XZ 00426b80 f i tcpip:CTcpIpConnection.obj
 0001:00025bc0       ??0IPort@@QAE@XZ           00426bc0 f i tcpip:CTcpIpConnection.obj
 0001:00025c00       ??1CTcpIpConnection@@UAE@XZ 00426c00 f   tcpip:CTcpIpConnection.obj
 0001:00025d00       ?StaticThreadFunc@CTcpIpConnection@@CGKPAX@Z 00426d00 f   tcpip:CTcpIpConnection.obj
 0001:00025d50       ?ThreadFunc@CTcpIpConnection@@IAEKXZ 00426d50 f   tcpip:CTcpIpConnection.obj
 0001:00025f10       ?Open@CTcpIpConnection@@UAGJPBE@Z 00426f10 f   tcpip:CTcpIpConnection.obj
 0001:00026130       ?Test@CTcpIpConnection@@UAGJXZ 00427130 f i tcpip:CTcpIpConnection.obj
 0001:00026160       ?Close@CTcpIpConnection@@UAGJXZ 00427160 f   tcpip:CTcpIpConnection.obj
 0001:000261d0       ?IsOpen@CTcpIpConnection@@UAGJXZ 004271d0 f   tcpip:CTcpIpConnection.obj
 0001:00026210       ?RegisterCallback@CTcpIpConnection@@UAGJPAUIPortCallback@@@Z 00427210 f   tcpip:CTcpIpConnection.obj
 0001:00026320       ?UnregisterCallback@CTcpIpConnection@@UAGJPAUIPortCallback@@@Z 00427320 f   tcpip:CTcpIpConnection.obj
 0001:00026450       ?Send@CTcpIpConnection@@UAGJPBEK@Z 00427450 f   tcpip:CTcpIpConnection.obj
 0001:000264d0       ?QueryInterface@CTcpIpConnection@@UAGJABU_GUID@@PAPAX@Z 004274d0 f   tcpip:CTcpIpConnection.obj
 0001:00026590       ?AddRef@CTcpIpConnection@@UAGKXZ 00427590 f   tcpip:CTcpIpConnection.obj
 0001:000265e0       ?Release@CTcpIpConnection@@UAGKXZ 004275e0 f   tcpip:CTcpIpConnection.obj
 0001:00026670       ??0CWinApp@@QAE@PAUHINSTANCE__@@0PADH@Z 00427670 f   ui:CWinApp.obj
 0001:00026710       ??_ECWinApp@@UAEPAXI@Z     00427710 f i ui:CWinApp.obj
 0001:00026710       ??_GCWinApp@@UAEPAXI@Z     00427710 f i ui:CWinApp.obj
 0001:00026770       ?SetParam@CWinApp@@QAEXPAUHINSTANCE__@@0PADH@Z 00427770 f   ui:CWinApp.obj
 0001:000267b0       ??1CWinApp@@UAE@XZ         004277b0 f   ui:CWinApp.obj
 0001:00026840       ?Init@CWinApp@@UAE_NXZ     00427840 f   ui:CWinApp.obj
 0001:00026870       ?MessagePump@CWinApp@@UAEXXZ 00427870 f   ui:CWinApp.obj
 0001:000268f0       ?Cleanup@CWinApp@@UAEHXZ   004278f0 f   ui:CWinApp.obj
 0001:00026920       ?AddWnd@CWinApp@@QAEXPAUHWND__@@PAVCWnd@@@Z 00427920 f   ui:CWinApp.obj
 0001:00026970       ?RemoveWnd@CWinApp@@QAEXPAUHWND__@@@Z 00427970 f   ui:CWinApp.obj
 0001:000269b0       ?GetWnd@CWinApp@@QAEPAVCWnd@@PAUHWND__@@@Z 004279b0 f   ui:CWinApp.obj
 0001:000269f0       ?WindowProc@CWinApp@@SGJPAUHWND__@@IIJ@Z 004279f0 f   ui:CWinApp.obj
 0001:00026b00       ?GetHinstance@CWinApp@@QAEPAUHINSTANCE__@@XZ 00427b00 f   ui:CWinApp.obj
 0001:00026b30       ?AddDialog@CWinApp@@QAEXPAUHWND__@@PAVCDialog@@@Z 00427b30 f   ui:CWinApp.obj
 0001:00026b80       ?RemoveDialog@CWinApp@@QAEXPAUHWND__@@@Z 00427b80 f   ui:CWinApp.obj
 0001:00026bc0       ?GetDialog@CWinApp@@QAEPAVCDialog@@PAUHWND__@@@Z 00427bc0 f   ui:CWinApp.obj
 0001:00026c00       ?DialogProc@CWinApp@@SGHPAUHWND__@@IIJ@Z 00427c00 f   ui:CWinApp.obj
 0001:00026d00       ?GetApp@CWinApp@@SAPAV1@XZ 00427d00 f   ui:CWinApp.obj
 0001:00026d30       ?LoadMenuA@CWinApp@@QAEPAUHMENU__@@PBD@Z 00427d30 f   ui:CWinApp.obj
 0001:00026d80       ?LoadIconA@CWinApp@@QAEPAUHICON__@@PBD@Z 00427d80 f   ui:CWinApp.obj
 0001:00026dd0       ?LoadBitmapA@CWinApp@@QAEPAUHBITMAP__@@PBD@Z 00427dd0 f   ui:CWinApp.obj
 0001:00026e20       ?LoadCursorA@CWinApp@@QAEPAUHICON__@@PBD@Z 00427e20 f   ui:CWinApp.obj
 0001:00026e70       ?ShowBusyCursor@CWinApp@@QAEXXZ 00427e70 f   ui:CWinApp.obj
 0001:00026ee0       ?HideBusyCursor@CWinApp@@QAEXXZ 00427ee0 f   ui:CWinApp.obj
 0001:00026f30       ?FindWindowA@CWinApp@@QAEPAVCWnd@@PAUHWND__@@@Z 00427f30 f   ui:CWinApp.obj
 0001:00026f70       ?FindDialog@CWinApp@@QAEPAVCDialog@@PAUHWND__@@@Z 00427f70 f   ui:CWinApp.obj
 0001:00026fb0       ??0CWnd@@QAE@XZ            00427fb0 f   ui:CWnd.obj
 0001:00026ff0       ??_GCWnd@@UAEPAXI@Z        00427ff0 f i ui:CWnd.obj
 0001:00026ff0       ??_ECWnd@@UAEPAXI@Z        00427ff0 f i ui:CWnd.obj
 0001:00027050       ??1CWnd@@UAE@XZ            00428050 f   ui:CWnd.obj
 0001:00027080       ?WindowProc@CWnd@@UAEJPAUHWND__@@IIJ@Z 00428080 f   ui:CWnd.obj
 0001:000270d0       ?Create@CWnd@@UAE_NPBD0KHHHHPAV1@PAUHMENU__@@@Z 004280d0 f   ui:CWnd.obj
 0001:000271b0       ?Create@CWnd@@UAE_NPBD0KHHHHPAVCDialog@@PAUHMENU__@@@Z 004281b0 f   ui:CWnd.obj
 0001:00027290       ?CreateEx@CWnd@@UAE_NKPBD0KHHHHPAV1@PAUHMENU__@@@Z 00428290 f   ui:CWnd.obj
 0001:00027380       ?GetHwnd@CWnd@@QAEPAUHWND__@@XZ 00428380 f   ui:CWnd.obj
 0001:000273b0       ?DestroyWindow@CWnd@@UAE_NXZ 004283b0 f   ui:CWnd.obj
 0001:00027400       ?GetClientRect@CWnd@@QAEXPAUtagRECT@@@Z 00428400 f   ui:CWnd.obj
 0001:00027450       ?GetWindowRect@CWnd@@QAEXPAUtagRECT@@@Z 00428450 f   ui:CWnd.obj
 0001:000274a0       ?ShowWindow@CWnd@@QAE_NH@Z 004284a0 f   ui:CWnd.obj
 0001:00027500       ?MoveWindow@CWnd@@QAE_NHHHHH@Z 00428500 f   ui:CWnd.obj
 0001:00027570       ?EnableWindow@CWnd@@QAE_N_N@Z 00428570 f   ui:CWnd.obj
 0001:000275d0       ?UpdateWindow@CWnd@@QAE_NXZ 004285d0 f   ui:CWnd.obj
 0001:00027620       ?SetWindowTextA@CWnd@@QAE_NPBD@Z 00428620 f   ui:CWnd.obj
 0001:00027680       ?SetFocus@CWnd@@QAEPAUHWND__@@XZ 00428680 f   ui:CWnd.obj
 0001:000276d0       ?SendMessageA@CWnd@@QAEJIIJ@Z 004286d0 f   ui:CWnd.obj
 0001:00027730       ?SendMessageA@CWnd@@SAJPAUHWND__@@IIJ@Z 00428730 f   ui:CWnd.obj
 0001:00027780       ?InvalidateRect@CWnd@@QAE_NPBUtagRECT@@_N@Z 00428780 f   ui:CWnd.obj
 0001:000277e0       ??0CString@@QAE@PAD@Z      004287e0 f   ui:CString.obj
 0001:00027840       ??_ECString@@UAEPAXI@Z     00428840 f i ui:CString.obj
 0001:00027840       ??_GCString@@UAEPAXI@Z     00428840 f i ui:CString.obj
 0001:000278a0       ??0CString@@QAE@ABV0@@Z    004288a0 f   ui:CString.obj
 0001:00027900       ??1CString@@UAE@XZ         00428900 f   ui:CString.obj
 0001:00027950       ??4CString@@QAEAAV0@PBD@Z  00428950 f   ui:CString.obj
 0001:000279f0       ??4CString@@QAEAAV0@ABV0@@Z 004289f0 f   ui:CString.obj
 0001:00027a40       ?GetData@CString@@QAEPADXZ 00428a40 f   ui:CString.obj
 0001:00027a70       ?GetData@CString@@QBEPBDXZ 00428a70 f   ui:CString.obj
 0001:00027aa0       ??0CMapHwndPtr@@QAE@XZ     00428aa0 f   ui:CMapHwndPtr.obj
 0001:00027af0       ??_ECMapHwndPtr@@UAEPAXI@Z 00428af0 f i ui:CMapHwndPtr.obj
 0001:00027af0       ??_GCMapHwndPtr@@UAEPAXI@Z 00428af0 f i ui:CMapHwndPtr.obj
 0001:00027b50       ??1CMapHwndPtr@@UAE@XZ     00428b50 f   ui:CMapHwndPtr.obj
 0001:00027ba0       ?Map@CMapHwndPtr@@QAEPAXPAUHWND__@@@Z 00428ba0 f   ui:CMapHwndPtr.obj
 0001:00027c20       ?AddPair@CMapHwndPtr@@QAEXPAUHWND__@@PAX@Z 00428c20 f   ui:CMapHwndPtr.obj
 0001:00027c70       ?Remove@CMapHwndPtr@@QAEXPAUHWND__@@@Z 00428c70 f   ui:CMapHwndPtr.obj
 0001:00027cf0       ??0?$CList@UNode@CMapHwndPtr@@ABU12@@@QAE@H@Z 00428cf0 f i ui:CMapHwndPtr.obj
 0001:00027d40       ??1?$CList@UNode@CMapHwndPtr@@ABU12@@@UAE@XZ 00428d40 f i ui:CMapHwndPtr.obj
 0001:00027d80       ?GetHeadPosition@?$CList@UNode@CMapHwndPtr@@ABU12@@@QAEPAXXZ 00428d80 f i ui:CMapHwndPtr.obj
 0001:00027db0       ?GetNext@?$CList@UNode@CMapHwndPtr@@ABU12@@@QAEAAUNode@CMapHwndPtr@@AAPAX@Z 00428db0 f i ui:CMapHwndPtr.obj
 0001:00027e00       ?AddTail@?$CList@UNode@CMapHwndPtr@@ABU12@@@QAEPAXABUNode@CMapHwndPtr@@@Z 00428e00 f i ui:CMapHwndPtr.obj
 0001:00027e80       ?GetAt@?$CList@UNode@CMapHwndPtr@@ABU12@@@QAEAAUNode@CMapHwndPtr@@PAX@Z 00428e80 f i ui:CMapHwndPtr.obj
 0001:00027ec0       ?RemoveAt@?$CList@UNode@CMapHwndPtr@@ABU12@@@QAEXPAX@Z 00428ec0 f i ui:CMapHwndPtr.obj
 0001:00027f60       ??_E?$CList@UNode@CMapHwndPtr@@ABU12@@@UAEPAXI@Z 00428f60 f i ui:CMapHwndPtr.obj
 0001:00027f60       ??_G?$CList@UNode@CMapHwndPtr@@ABU12@@@UAEPAXI@Z 00428f60 f i ui:CMapHwndPtr.obj
 0001:00027fc0       ??_G?$CListNode@UNode@CMapHwndPtr@@ABU12@@@QAEPAXI@Z 00428fc0 f i ui:CMapHwndPtr.obj
 0001:00028020       ?RemoveAll@?$CList@UNode@CMapHwndPtr@@ABU12@@@QAEXXZ 00429020 f i ui:CMapHwndPtr.obj
 0001:00028070       ?AllocNode@?$CList@UNode@CMapHwndPtr@@ABU12@@@QAEPAV?$CListNode@UNode@CMapHwndPtr@@ABU12@@@ABUNode@CMapHwndPtr@@@Z 00429070 f i ui:CMapHwndPtr.obj
 0001:00028110       ??1?$CListNode@UNode@CMapHwndPtr@@ABU12@@@QAE@XZ 00429110 f i ui:CMapHwndPtr.obj
 0001:00028150       ?LinkAfter@?$CListNode@UNode@CMapHwndPtr@@ABU12@@@QAEXPAV1@@Z 00429150 f i ui:CMapHwndPtr.obj
 0001:000281b0       ?GetNext@?$CListNode@UNode@CMapHwndPtr@@ABU12@@@QBEPAV1@XZ 004291b0 f i ui:CMapHwndPtr.obj
 0001:000281e0       ?GetPrev@?$CListNode@UNode@CMapHwndPtr@@ABU12@@@QAEPAV1@XZ 004291e0 f i ui:CMapHwndPtr.obj
 0001:00028210       ?GetData@?$CListNode@UNode@CMapHwndPtr@@ABU12@@@QAEAAUNode@CMapHwndPtr@@XZ 00429210 f i ui:CMapHwndPtr.obj
 0001:00028240       ?IsEmpty@?$CList@UNode@CMapHwndPtr@@ABU12@@@QBE_NXZ 00429240 f i ui:CMapHwndPtr.obj
 0001:00028290       ?RemoveHead@?$CList@UNode@CMapHwndPtr@@ABU12@@@QAE?AUNode@CMapHwndPtr@@XZ 00429290 f i ui:CMapHwndPtr.obj
 0001:00028320       ??0?$CListNode@UNode@CMapHwndPtr@@ABU12@@@QAE@ABUNode@CMapHwndPtr@@@Z 00429320 f i ui:CMapHwndPtr.obj
 0001:00028370       ?Unlink@?$CListNode@UNode@CMapHwndPtr@@ABU12@@@QAEXXZ 00429370 f i ui:CMapHwndPtr.obj
 0001:000283d0       ??0CDialog@@QAE@XZ         004293d0 f   ui:CDialog.obj
 0001:00028420       ??_GCDialog@@UAEPAXI@Z     00429420 f i ui:CDialog.obj
 0001:00028420       ??_ECDialog@@UAEPAXI@Z     00429420 f i ui:CDialog.obj
 0001:00028480       ??1CDialog@@UAE@XZ         00429480 f   ui:CDialog.obj
 0001:000284b0       ?DialogProc@CDialog@@UAE_NPAUHWND__@@IIJ@Z 004294b0 f   ui:CDialog.obj
 0001:000284e0       ?CreateIndirect@CDialog@@UAE_NIPAVCWnd@@@Z 004294e0 f   ui:CDialog.obj
 0001:000285c0       ?GetHwnd@CDialog@@QAEPAUHWND__@@XZ 004295c0 f   ui:CDialog.obj
 0001:000285f0       ?DestroyWindow@CDialog@@UAE_NXZ 004295f0 f   ui:CDialog.obj
 0001:00028640       ?DoModal@CDialog@@UAEHIPAVCWnd@@@Z 00429640 f   ui:CDialog.obj
 0001:00028710       ?DoModal@CDialog@@UAEHPAUDLGTEMPLATE@@PAVCWnd@@@Z 00429710 f   ui:CDialog.obj
 0001:00028790       ?EndDialog@CDialog@@UAEHH@Z 00429790 f   ui:CDialog.obj
 0001:000287e0       ?GetDlgItem@CDialog@@QAEPAUHWND__@@H@Z 004297e0 f   ui:CDialog.obj
 0001:00028830       ?GetClientRect@CDialog@@QAEXPAUtagRECT@@@Z 00429830 f   ui:CDialog.obj
 0001:00028880       ?GetWindowRect@CDialog@@QAEXPAUtagRECT@@@Z 00429880 f   ui:CDialog.obj
 0001:000288d0       ?ShowWindow@CDialog@@QAE_NH@Z 004298d0 f   ui:CDialog.obj
 0001:00028930       ?MoveWindow@CDialog@@QAE_NHHHHH@Z 00429930 f   ui:CDialog.obj
 0001:000289a0       ?EnableWindow@CDialog@@QAE_N_N@Z 004299a0 f   ui:CDialog.obj
 0001:00028a00       ??0CUtil@@QAE@XZ           00429a00 f   util:CUtil.obj
 0001:00028a30       ??_ECUtil@@UAEPAXI@Z       00429a30 f i util:CUtil.obj
 0001:00028a30       ??_GCUtil@@UAEPAXI@Z       00429a30 f i util:CUtil.obj
 0001:00028a90       ??1CUtil@@UAE@XZ           00429a90 f   util:CUtil.obj
 0001:00028ac0       ?u_strcmpi@CUtil@@SAHPBD0@Z 00429ac0 f   util:CUtil.obj
 0001:00028c10       ??0CLPTPort@@QAE@H@Z       00429c10 f   lpt:CLPTPort.obj
 0001:00028c60       ??_ECLPTPort@@UAEPAXI@Z    00429c60 f i lpt:CLPTPort.obj
 0001:00028c60       ??_GCLPTPort@@UAEPAXI@Z    00429c60 f i lpt:CLPTPort.obj
 0001:00028cc0       ??1CLPTPort@@UAE@XZ        00429cc0 f   lpt:CLPTPort.obj
 0001:00028cf0       ?ReadMem@CLPTPort@@AAEKK@Z 00429cf0 f   lpt:CLPTPort.obj
 0001:00028d40       ?inport@CLPTPort@@AAEKG@Z  00429d40 f   lpt:CLPTPort.obj
 0001:00028d90       ?outport@CLPTPort@@AAEXGK@Z 00429d90 f   lpt:CLPTPort.obj
 0001:00028de0       ?SetPortNum@CLPTPort@@QAEXH@Z 00429de0 f   lpt:CLPTPort.obj
 0001:00028e90       ?SetPortVal@CLPTPort@@QAEXH@Z 00429e90 f   lpt:CLPTPort.obj
 0001:00028ee0       ?SetBit@CLPTPort@@QAEXH_N@Z 00429ee0 f   lpt:CLPTPort.obj
 0001:00028f80       ?ToggleBit@CLPTPort@@QAEXH@Z 00429f80 f   lpt:CLPTPort.obj
 0001:00028ff0       ?Init@CLPTPort@@SAXXZ      00429ff0 f   lpt:CLPTPort.obj
 0001:000290c0       _strcpy                    0042a0c0 f   LIBCD:strcat.obj
 0001:000290d0       _strcat                    0042a0d0 f   LIBCD:strcat.obj
 0001:000291b0       __chkesp                   0042a1b0 f   LIBCD:chkesp.obj
 0001:000291f0       ??3@YAXPAX@Z               0042a1f0 f   LIBCD:dbgdel.obj
 0001:00029280       _sprintf                   0042a280 f   LIBCD:sprintf.obj
 0001:00029380       _atol                      0042a380 f   LIBCD:atox.obj
 0001:00029480       _atoi                      0042a480 f   LIBCD:atox.obj
 0001:000294a0       __atoi64                   0042a4a0 f   LIBCD:atox.obj
 0001:000295d0       __fpmath                   0042a5d0 f   LIBCD:fpinit.obj
 0001:00029600       __fpclear                  0042a600 f   LIBCD:fpinit.obj
 0001:00029610       __cfltcvt_init             0042a610 f   LIBCD:fpinit.obj
 0001:00029660       ___setfflag                0042a660 f   LIBCD:fpinit.obj
 0001:00029680       _atof                      0042a680 f   LIBCD:atof.obj
 0001:00029700       __onexit                   0042a700 f   LIBCD:onexit.obj
 0001:000297b0       _atexit                    0042a7b0 f   LIBCD:onexit.obj
 0001:000297d0       ___onexitinit              0042a7d0 f   LIBCD:onexit.obj
 0001:00029820       ??2@YAPAXI@Z               0042a820 f   LIBCD:new.obj
 0001:00029840       ?_JumpToContinuation@@YGXPAXPAUEHRegistrationNode@@@Z 0042a840 f   LIBCD:trnsctrl.obj
 0001:00029880       ?_CallMemberFunction0@@YGXPAX0@Z 0042a880 f   LIBCD:trnsctrl.obj
 0001:00029890       ?_CallMemberFunction1@@YGXPAX00@Z 0042a890 f   LIBCD:trnsctrl.obj
 0001:000298a0       ?_CallMemberFunction2@@YGXPAX00H@Z 0042a8a0 f   LIBCD:trnsctrl.obj
 0001:000298b0       ?_UnwindNestedFrames@@YGXPAUEHRegistrationNode@@PAUEHExceptionRecord@@@Z 0042a8b0 f   LIBCD:trnsctrl.obj
 0001:00029910       ___CxxFrameHandler         0042a910 f   LIBCD:trnsctrl.obj
 0001:00029950       ___CxxLongjmpUnwind@4      0042a950 f   LIBCD:trnsctrl.obj
 0001:00029980       ?_CallCatchBlock2@@YAPAXPAUEHRegistrationNode@@PBU_s_FuncInfo@@PAXHK@Z 0042a980 f   LIBCD:trnsctrl.obj
 0001:00029a30       ?_CallSETranslator@@YAHPAUEHExceptionRecord@@PAUEHRegistrationNode@@PAX2PBU_s_FuncInfo@@H1@Z 0042aa30 f   LIBCD:trnsctrl.obj
 0001:00029b90       ?_GetRangeOfTrysToCheck@@YAPBU_s_TryBlockMapEntry@@PBU_s_FuncInfo@@HHPAI1@Z 0042ab90 f   LIBCD:trnsctrl.obj
 0001:00029c20       __global_unwind2           0042ac20 f   LIBCD:exsup.obj
 0001:00029c62       __local_unwind2            0042ac62 f   LIBCD:exsup.obj
 0001:00029cba       __NLG_Return2              0042acba f   LIBCD:exsup.obj
 0001:00029cca       __abnormal_termination     0042acca f   LIBCD:exsup.obj
 0001:00029ced       __NLG_Notify1              0042aced f   LIBCD:exsup.obj
 0001:00029cf6       __NLG_Notify               0042acf6 f   LIBCD:exsup.obj
 0001:00029d09       __NLG_Dispatch             0042ad09 f   LIBCD:exsup.obj
 0001:00029d10       _memcmp                    0042ad10 f   LIBCD:memcmp.obj
 0001:00029dc0       __assert                   0042adc0 f   LIBCD:assert.obj
 0001:0002a140       __purecall                 0042b140 f   LIBCD:purevirt.obj
 0001:0002a150       _strlen                    0042b150 f   LIBCD:strlen.obj
 0001:0002a1d0       _strtok                    0042b1d0 f   LIBCD:strtok.obj
 0001:0002a310       ??_M@YGXPAXIHP6EX0@Z@Z     0042b310 f   LIBCD:ehvecdtr.obj
 0001:0002a3c0       ?__ArrayUnwind@@YGXPAXIHP6EX0@Z@Z 0042b3c0 f   LIBCD:ehvecdtr.obj
 0001:0002a470       ??_L@YGXPAXIHP6EX0@Z1@Z    0042b470 f   LIBCD:ehvecctr.obj
 0001:0002a510       __CIsin                    0042b510 f   LIBCD:sin.obj
 0001:0002a524       _sin                       0042b524 f   LIBCD:sin.obj
 0001:0002a5c0       __CIcos                    0042b5c0 f   LIBCD:cos.obj
 0001:0002a5d4       _cos                       0042b5d4 f   LIBCD:cos.obj
 0001:0002a670       __ftol                     0042b670 f   LIBCD:ftol.obj
 0001:0002a6a0       __tolower                  0042b6a0 f   LIBCD:tolower.obj
 0001:0002a6b0       _tolower                   0042b6b0 f   LIBCD:tolower.obj
 0001:0002a7e0       _fclose                    0042b7e0 f   LIBCD:fclose.obj
 0001:0002a8c0       _fread                     0042b8c0 f   LIBCD:fread.obj
 0001:0002aa90       __fsopen                   0042ba90 f   LIBCD:fopen.obj
 0001:0002ab80       _fopen                     0042bb80 f   LIBCD:fopen.obj
 0001:0002aba0       _fwrite                    0042bba0 f   LIBCD:fwrite.obj
 0001:0002adc0       _memset                    0042bdc0 f   LIBCD:memset.obj
 0001:0002ae20       _fprintf                   0042be20 f   LIBCD:fprintf.obj
 0001:0002aed0       __alloca_probe             0042bed0 f   LIBCD:chkstk.obj
 0001:0002aed0       __chkstk                   0042bed0 f   LIBCD:chkstk.obj
 0001:0002af00       __alldiv                   0042bf00 f   LIBCD:lldiv.obj
 0001:0002afb0       _memcpy                    0042bfb0 f   LIBCD:memcpy.obj
 0001:0002b2f0       _floor                     0042c2f0 f   LIBCD:floor.obj
 0001:0002b430       __CIsqrt                   0042c430 f   LIBCD:sqrt.obj
 0001:0002b444       _sqrt                      0042c444 f   LIBCD:sqrt.obj
 0001:0002b4f0       _ceil                      0042c4f0 f   LIBCD:ceil.obj
 0001:0002b630       _WinMainCRTStartup         0042c630 f   LIBCD:wincrt0.obj
 0001:0002b790       __amsg_exit                0042c790 f   LIBCD:wincrt0.obj
 0001:0002b7f0       __mkdir                    0042c7f0 f   LIBCD:mkdir.obj
 0001:0002b840       _fflush                    0042c840 f   LIBCD:fflush.obj
 0001:0002b8a0       __flush                    0042c8a0 f   LIBCD:fflush.obj
 0001:0002b960       __flushall                 0042c960 f   LIBCD:fflush.obj
 0001:0002ba50       _vfprintf                  0042ca50 f   LIBCD:vfprintf.obj
 0001:0002bb00       _strcmp                    0042cb00 f   LIBCD:strcmp.obj
 0001:0002bb90       __toupper                  0042cb90 f   LIBCD:toupper.obj
 0001:0002bba0       _toupper                   0042cba0 f   LIBCD:toupper.obj
 0001:0002bcd0       __CrtDbgBreak              0042ccd0 f   LIBCD:dbgrpt.obj
 0001:0002bce0       __CrtSetReportMode         0042cce0 f   LIBCD:dbgrpt.obj
 0001:0002bd40       __CrtSetReportFile         0042cd40 f   LIBCD:dbgrpt.obj
 0001:0002bdc0       __CrtSetReportHook         0042cdc0 f   LIBCD:dbgrpt.obj
 0001:0002bde0       __CrtDbgReport             0042cde0 f   LIBCD:dbgrpt.obj
 0001:0002c480       _malloc                    0042d480 f   LIBCD:dbgheap.obj
 0001:0002c4a0       __malloc_dbg               0042d4a0 f   LIBCD:dbgheap.obj
 0001:0002c4d0       __nh_malloc                0042d4d0 f   LIBCD:dbgheap.obj
 0001:0002c4f0       __nh_malloc_dbg            0042d4f0 f   LIBCD:dbgheap.obj
 0001:0002c540       __heap_alloc               0042d540 f   LIBCD:dbgheap.obj
 0001:0002c560       __heap_alloc_dbg           0042d560 f   LIBCD:dbgheap.obj
 0001:0002c880       _calloc                    0042d880 f   LIBCD:dbgheap.obj
 0001:0002c8a0       __calloc_dbg               0042d8a0 f   LIBCD:dbgheap.obj
 0001:0002c900       _realloc                   0042d900 f   LIBCD:dbgheap.obj
 0001:0002c920       __realloc_dbg              0042d920 f   LIBCD:dbgheap.obj
 0001:0002ce70       __expand                   0042de70 f   LIBCD:dbgheap.obj
 0001:0002ce90       __expand_dbg               0042de90 f   LIBCD:dbgheap.obj
 0001:0002cec0       _free                      0042dec0 f   LIBCD:dbgheap.obj
 0001:0002cee0       __free_dbg                 0042dee0 f   LIBCD:dbgheap.obj
 0001:0002d2d0       __msize                    0042e2d0 f   LIBCD:dbgheap.obj
 0001:0002d2f0       __msize_dbg                0042e2f0 f   LIBCD:dbgheap.obj
 0001:0002d440       __CrtSetBreakAlloc         0042e440 f   LIBCD:dbgheap.obj
 0001:0002d460       __CrtSetDbgBlockType       0042e460 f   LIBCD:dbgheap.obj
 0001:0002d4f0       __CrtSetAllocHook          0042e4f0 f   LIBCD:dbgheap.obj
 0001:0002d5a0       __CrtCheckMemory           0042e5a0 f   LIBCD:dbgheap.obj
 0001:0002d900       __CrtSetDbgFlag            0042e900 f   LIBCD:dbgheap.obj
 0001:0002d930       __CrtDoForAllClientObjects 0042e930 f   LIBCD:dbgheap.obj
 0001:0002d990       __CrtIsValidPointer        0042e990 f   LIBCD:dbgheap.obj
 0001:0002d9e0       __CrtIsValidHeapPointer    0042e9e0 f   LIBCD:dbgheap.obj
 0001:0002da70       __CrtIsMemoryBlock         0042ea70 f   LIBCD:dbgheap.obj
 0001:0002db40       __CrtSetDumpClient         0042eb40 f   LIBCD:dbgheap.obj
 0001:0002db60       __CrtMemCheckpoint         0042eb60 f   LIBCD:dbgheap.obj
 0001:0002dcc0       __CrtMemDifference         0042ecc0 f   LIBCD:dbgheap.obj
 0001:0002ddf0       __CrtMemDumpAllObjectsSince 0042edf0 f   LIBCD:dbgheap.obj
 0001:0002e1c0       __CrtDumpMemoryLeaks       0042f1c0 f   LIBCD:dbgheap.obj
 0001:0002e240       __CrtMemDumpStatistics     0042f240 f   LIBCD:dbgheap.obj
 0001:0002e310       __flsbuf                   0042f310 f   LIBCD:_flsbuf.obj
 0001:0002e590       __output                   0042f590 f   LIBCD:output.obj
 0001:0002f430       __isctype                  00430430 f   LIBCD:isctype.obj
 0001:0002f4f0       __allmul                   004304f0 f   LIBCD:llmul.obj
 0001:0002f530       __setdefaultprecision      00430530 f   LIBCD:fp8.obj
 0001:0002f550       __ms_p5_test_fdiv          00430550 f   LIBCD:testfdiv.obj
 0001:0002f5b0       __ms_p5_mp_test_fdiv       004305b0 f   LIBCD:testfdiv.obj
 0001:0002f600       __forcdecpt                00430600 f   LIBCD:cvt.obj
 0001:0002f6b0       __cropzeros                004306b0 f   LIBCD:cvt.obj
 0001:0002f790       __positive                 00430790 f   LIBCD:cvt.obj
 0001:0002f7c0       __fassign                  004307c0 f   LIBCD:cvt.obj
 0001:0002f810       __cftoe                    00430810 f   LIBCD:cvt.obj
 0001:0002f9d0       __cftof                    004309d0 f   LIBCD:cvt.obj
 0001:0002fb60       __cftog                    00430b60 f   LIBCD:cvt.obj
 0001:0002fcd0       __cfltcvt                  00430cd0 f   LIBCD:cvt.obj
 0001:0002fd60       __fltin                    00430d60 f   LIBCD:cfin.obj
 0001:0002fe30       __cinit                    00430e30 f   LIBCD:crt0dat.obj
 0001:0002fe70       _exit                      00430e70 f   LIBCD:crt0dat.obj
 0001:0002fe90       __exit                     00430e90 f   LIBCD:crt0dat.obj
 0001:0002feb0       __cexit                    00430eb0 f   LIBCD:crt0dat.obj
 0001:0002fed0       __c_exit                   00430ed0 f   LIBCD:crt0dat.obj
 0001:00030000       ___InternalCxxFrameHandler 00431000 f   LIBCD:frame.obj
 0001:00030570       ___FrameUnwindToState      00431570 f   LIBCD:frame.obj
 0001:00030b80       ?_DestructExceptionObject@@YAXPAUEHExceptionRecord@@E@Z 00431b80 f   LIBCD:frame.obj
 0001:00030c60       __CallSettingFrame@12      00431c60 f   LIBCD:lowhelpr.obj
 0001:00030c87       __NLG_Return               00431c87 f   LIBCD:lowhelpr.obj
 0001:00030cb0       ?terminate@@YAXXZ          00431cb0 f   LIBCD:hooks.obj
 0001:00030d40       ?unexpected@@YAXXZ         00431d40 f   LIBCD:hooks.obj
 0001:00030d60       ?_inconsistency@@YAXXZ     00431d60 f   LIBCD:hooks.obj
 0001:00030df0       _abort                     00431df0 f   LIBCD:abort.obj
 0001:00030e10       _signal                    00431e10 f   LIBCD:winsig.obj
 0001:00031020       _raise                     00432020 f   LIBCD:winsig.obj
 0001:00031240       ___crtMessageBoxA          00432240 f   LIBCD:crtmbox.obj
 0001:00031300       __itoa                     00432300 f   LIBCD:xtoa.obj
 0001:00031420       __ltoa                     00432420 f   LIBCD:xtoa.obj
 0001:00031460       __ultoa                    00432460 f   LIBCD:xtoa.obj
 0001:00031480       __i64toa                   00432480 f   LIBCD:xtoa.obj
 0001:000315d0       __ui64toa                  004325d0 f   LIBCD:xtoa.obj
 0001:000315f0       _strncat                   004325f0 f   LIBCD:strncat.obj
 0001:00031720       _strncpy                   00432720 f   LIBCD:strncpy.obj
 0001:00031820       _setvbuf                   00432820 f   LIBCD:setvbuf.obj
 0001:00031980       ___initstdio               00432980 f   LIBCD:_file.obj
 0001:00031ab0       ___endstdio                00432ab0 f   LIBCD:_file.obj
 0001:00031ad4       __except_handler3          00432ad4 f   LIBCD:exsup3.obj
 0001:00031b91       __seh_longjmp_unwind@4     00432b91 f   LIBCD:exsup3.obj
 0001:00031bb0       __trandisp1                00432bb0 f   LIBCD:87disp.obj
 0001:00031c17       __trandisp2                00432c17 f   LIBCD:87disp.obj
 0001:00031ca3       __rttospopde               00432ca3 f   LIBCD:87disp.obj
 0001:00031ca8       __rttospop                 00432ca8 f   LIBCD:87disp.obj
 0001:00031caa       __rtnospop                 00432caa f   LIBCD:87disp.obj
 0001:00031cac       __rttosnpop                00432cac f   LIBCD:87disp.obj
 0001:00031cad       __rtnospopde               00432cad f   LIBCD:87disp.obj
 0001:00031cb4       __rtzeropop                00432cb4 f   LIBCD:87disp.obj
 0001:00031cb6       __rtzeronpop               00432cb6 f   LIBCD:87disp.obj
 0001:00031cbb       __rtonepop                 00432cbb f   LIBCD:87disp.obj
 0001:00031cbd       __rtonenpop                00432cbd f   LIBCD:87disp.obj
 0001:00031cc2       __tosnan1                  00432cc2 f   LIBCD:87disp.obj
 0001:00031ced       __nosnan2                  00432ced f   LIBCD:87disp.obj
 0001:00031cef       __tosnan2                  00432cef f   LIBCD:87disp.obj
 0001:00031d17       __nan2                     00432d17 f   LIBCD:87disp.obj
 0001:00031d56       __rtindfpop                00432d56 f   LIBCD:87disp.obj
 0001:00031d58       __rtindfnpop               00432d58 f   LIBCD:87disp.obj
 0001:00031d69       __rttosnpopde              00432d69 f   LIBCD:87disp.obj
 0001:00031d73       __rtchsifneg               00432d73 f   LIBCD:87disp.obj
 0001:00031d80       __twoToTOS                 00432d80 f   LIBCD:common.obj
 0001:00031d95       __load_CW                  00432d95 f   LIBCD:common.obj
 0001:00031dac       __convertTOStoQNaN         00432dac f   LIBCD:common.obj
 0001:00031dc5       __fload_withFB             00432dc5 f   LIBCD:common.obj
 0001:00031e08       __checkTOS_withFB          00432e08 f   LIBCD:common.obj
 0001:00031e1e       __fast_exit                00432e1e f   LIBCD:common.obj
 0001:00031e2b       __math_exit                00432e2b f   LIBCD:common.obj
 0001:00031e55       __check_overflow_exit      00432e55 f   LIBCD:common.obj
 0001:00031e69       __check_range_exit         00432e69 f   LIBCD:common.obj
 0001:00031f10       __startTwoArgErrorHandling 00432f10 f   LIBCD:genexcep.obj
 0001:00031f27       __startOneArgErrorHandling 00432f27 f   LIBCD:genexcep.obj
 0001:00031f70       ___crtLCMapStringA         00432f70 f   LIBCD:a_map.obj
 0001:000322d0       __close                    004332d0 f   LIBCD:close.obj
 0001:000323c0       __freebuf                  004333c0 f   LIBCD:_freebuf.obj
 0001:00032460       __filbuf                   00433460 f   LIBCD:_filbuf.obj
 0001:00032640       __read                     00433640 f   LIBCD:read.obj
 0001:00032aa0       __openfile                 00433aa0 f   LIBCD:_open.obj
 0001:00032e30       __getstream                00433e30 f   LIBCD:stream.obj
 0001:00032f20       __write                    00433f20 f   LIBCD:write.obj
 0001:000331d0       __stbuf                    004341d0 f   LIBCD:_sftbuf.obj
 0001:00033330       __ftbuf                    00434330 f   LIBCD:_sftbuf.obj
 0001:000333f0       __frnd                     004343f0 f   LIBCD:frnd.obj
 0001:00033410       __handle_qnan1             00434410 f   LIBCD:fpexcept.obj
 0001:00033470       __handle_qnan2             00434470 f   LIBCD:fpexcept.obj
 0001:000334e0       __except1                  004344e0 f   LIBCD:fpexcept.obj
 0001:000335a0       __except2                  004345a0 f   LIBCD:fpexcept.obj
 0001:00033670       __raise_exc                00434670 f   LIBCD:fpexcept.obj
 0001:00033b40       __handle_exc               00434b40 f   LIBCD:fpexcept.obj
 0001:00033ec0       __umatherr                 00434ec0 f   LIBCD:fpexcept.obj
 0001:00033f60       __set_errno                00434f60 f   LIBCD:fpexcept.obj
 0001:00033fe0       __errcode                  00434fe0 f   LIBCD:fpexcept.obj
 0001:00034060       __set_exp                  00435060 f   LIBCD:util.obj
 0001:000340a0       __get_exp                  004350a0 f   LIBCD:util.obj
 0001:000340d0       __add_exp                  004350d0 f   LIBCD:util.obj
 0001:00034110       __set_bexp                 00435110 f   LIBCD:util.obj
 0001:00034150       __sptype                   00435150 f   LIBCD:util.obj
 0001:000341d0       __decomp                   004351d0 f   LIBCD:util.obj
 0001:00034310       __statfp                   00435310 f   LIBCD:fpctrl.obj
 0001:00034330       __clrfp                    00435330 f   LIBCD:fpctrl.obj
 0001:00034350       __ctrlfp                   00435350 f   LIBCD:fpctrl.obj
 0001:00034390       __set_statfp               00435390 f   LIBCD:fpctrl.obj
 0001:00034410       __XcptFilter               00435410 f   LIBCD:winxfltr.obj
 0001:00034620       __wincmdln                 00435620 f   LIBCD:wincmdln.obj
 0001:000346e0       __setenvp                  004356e0 f   LIBCD:stdenvp.obj
 0001:00034830       __setargv                  00435830 f   LIBCD:stdargv.obj
 0001:00034d40       ___crtGetEnvironmentStringsA 00435d40 f   LIBCD:a_env.obj
 0001:00034f60       __ioinit                   00435f60 f   LIBCD:ioinit.obj
 0001:00035270       __ioterm                   00436270 f   LIBCD:ioinit.obj
 0001:000352d0       __heap_init                004362d0 f   LIBCD:heapinit.obj
 0001:00035320       __heap_term                00436320 f   LIBCD:heapinit.obj
 0001:000353c0       __FF_MSGBANNER             004363c0 f   LIBCD:crt0msg.obj
 0001:00035410       __NMSG_WRITE               00436410 f   LIBCD:crt0msg.obj
 0001:000355d0       __GET_RTERRMSG             004365d0 f   LIBCD:crt0msg.obj
 0001:00035620       __dosmaperr                00436620 f   LIBCD:dosmap.obj
 0001:000356b0       __commit                   004366b0 f   LIBCD:commit.obj
 0001:00035760       __snprintf                 00436760 f   LIBCD:snprintf.obj
 0001:00035860       __vsnprintf                00436860 f   LIBCD:vsnprint.obj
 0001:00035960       ?_set_new_handler@@YAP6AHI@ZP6AHI@Z@Z 00436960 f   LIBCD:handler.obj
 0001:00035980       ?_query_new_handler@@YAP6AHI@ZXZ 00436980 f   LIBCD:handler.obj
 0001:00035990       __callnewh                 00436990 f   LIBCD:handler.obj
 0001:000359c0       __malloc_base              004369c0 f   LIBCD:malloc.obj
 0001:000359e0       __nh_malloc_base           004369e0 f   LIBCD:malloc.obj
 0001:00035a40       __heap_alloc_base          00436a40 f   LIBCD:malloc.obj
 0001:00035aa0       __CrtDefaultAllocHook      00436aa0 f   LIBCD:dbghook.obj
 0001:00035ab0       __expand_base              00436ab0 f   LIBCD:expand.obj
 0001:00035b40       __realloc_base             00436b40 f   LIBCD:realloc.obj
 0001:00035d10       __free_base                00436d10 f   LIBCD:free.obj
 0001:00035d60       __heapchk                  00436d60 f   LIBCD:heapchk.obj
 0001:00035dc0       __heapset                  00436dc0 f   LIBCD:heapchk.obj
 0001:00035dd0       __get_sbh_threshold        00436dd0 f   LIBCD:sbheap.obj
 0001:00035de0       __set_sbh_threshold        00436de0 f   LIBCD:sbheap.obj
 0001:00035e00       ___sbh_heap_init           00436e00 f   LIBCD:sbheap.obj
 0001:00035e60       ___sbh_find_block          00436e60 f   LIBCD:sbheap.obj
 0001:00035ec0       ___sbh_verify_block        00436ec0 f   LIBCD:sbheap.obj
 0001:00035f20       ___sbh_free_block          00436f20 f   LIBCD:sbheap.obj
 0001:000364f0       ___sbh_alloc_block         004374f0 f   LIBCD:sbheap.obj
 0001:00036a30       ___sbh_alloc_new_region    00437a30 f   LIBCD:sbheap.obj
 0001:00036b40       ___sbh_alloc_new_group     00437b40 f   LIBCD:sbheap.obj
 0001:00036d30       ___sbh_resize_block        00437d30 f   LIBCD:sbheap.obj
 0001:00037320       ___sbh_heapmin             00438320 f   LIBCD:sbheap.obj
 0001:00037450       ___sbh_heap_check          00438450 f   LIBCD:sbheap.obj
 0001:00037a70       __lseek                    00438a70 f   LIBCD:lseek.obj
 0001:00037b60       __getbuf                   00438b60 f   LIBCD:_getbuf.obj
 0001:00037c30       __isatty                   00438c30 f   LIBCD:isatty.obj
 0001:00037c60       _wctomb                    00438c60 f   LIBCD:wctomb.obj
 0001:00037d00       __aulldiv                  00438d00 f   LIBCD:ulldiv.obj
 0001:00037d70       __aullrem                  00438d70 f   LIBCD:ullrem.obj
 0001:00037df0       ___crtGetStringTypeA       00438df0 f   LIBCD:a_str.obj
 0001:00037fb0       __statusfp                 00438fb0 f   LIBCD:ieee87.obj
 0001:00037fd0       __clearfp                  00438fd0 f   LIBCD:ieee87.obj
 0001:00037ff0       __control87                00438ff0 f   LIBCD:ieee87.obj
 0001:00038040       __controlfp                00439040 f   LIBCD:ieee87.obj
 0001:00038060       __fpreset                  00439060 f   LIBCD:ieee87.obj
 0001:00038450       __ZeroTail                 00439450 f   LIBCD:intrncvt.obj
 0001:000384e0       __IncMan                   004394e0 f   LIBCD:intrncvt.obj
 0001:00038590       __RoundMan                 00439590 f   LIBCD:intrncvt.obj
 0001:00038670       __CopyMan                  00439670 f   LIBCD:intrncvt.obj
 0001:000386c0       __FillZeroMan              004396c0 f   LIBCD:intrncvt.obj
 0001:000386f0       __IsZeroMan                004396f0 f   LIBCD:intrncvt.obj
 0001:00038730       __ShrMan                   00439730 f   LIBCD:intrncvt.obj
 0001:00038820       __ld12cvt                  00439820 f   LIBCD:intrncvt.obj
 0001:00038a70       __ld12tod                  00439a70 f   LIBCD:intrncvt.obj
 0001:00038a90       __ld12tof                  00439a90 f   LIBCD:intrncvt.obj
 0001:00038ab0       __ld12told                 00439ab0 f   LIBCD:intrncvt.obj
 0001:00038b70       __atodbl                   00439b70 f   LIBCD:intrncvt.obj
 0001:00038bb0       __atoldbl                  00439bb0 f   LIBCD:intrncvt.obj
 0001:00038bf0       __atoflt                   00439bf0 f   LIBCD:intrncvt.obj
 0001:00038c30       __fptostr                  00439c30 f   LIBCD:_fptostr.obj
 0001:00038d30       __fltout                   00439d30 f   LIBCD:cfout.obj
 0001:00038db0       ___dtold                   00439db0 f   LIBCD:cfout.obj
 0001:00038f20       _memmove                   00439f20 f   LIBCD:memmove.obj
 0001:00039260       __fptrap                   0043a260 f   LIBCD:crt0fp.obj
 0001:00039270       ___strgtold12              0043a270 f   LIBCD:strgtold.obj
 0001:00039da0       ___STRINGTOLD              0043ada0 f   LIBCD:strgtold.obj
 0001:00039df0       ?__CxxUnhandledExceptionFilter@@YGJPAU_EXCEPTION_POINTERS@@@Z 0043adf0 f   LIBCD:unhandld.obj
 0001:00039e50       ?__CxxSetUnhandledExceptionFilter@@YAXXZ 0043ae50 f   LIBCD:unhandld.obj
 0001:00039e70       ?__CxxRestoreUnhandledExceptionFilter@@YAXXZ 0043ae70 f   LIBCD:unhandld.obj
 0001:00039e90       ?_ValidateRead@@YAHPBXI@Z  0043ae90 f   LIBCD:validate.obj
 0001:00039ec0       ?_ValidateWrite@@YAHPAXI@Z 0043aec0 f   LIBCD:validate.obj
 0001:00039ef0       ?_ValidateExecute@@YAHP6GHXZ@Z 0043aef0 f   LIBCD:validate.obj
 0001:00039f20       __fcloseall                0043af20 f   LIBCD:closeall.obj
 0001:00039fd0       __87except                 0043afd0 f   LIBCD:87except.obj
 0001:0003a150       __alloc_osfhnd             0043b150 f   LIBCD:osfinfo.obj
 0001:0003a280       __set_osfhnd               0043b280 f   LIBCD:osfinfo.obj
 0001:0003a330       __free_osfhnd              0043b330 f   LIBCD:osfinfo.obj
 0001:0003a400       __get_osfhandle            0043b400 f   LIBCD:osfinfo.obj
 0001:0003a460       __open_osfhandle           0043b460 f   LIBCD:osfinfo.obj
 0001:0003a550       __open                     0043b550 f   LIBCD:open.obj
 0001:0003a590       __sopen                    0043b590 f   LIBCD:open.obj
 0001:0003aa80       __matherr                  0043ba80 f   LIBCD:matherr.obj
 0001:0003aa90       __ismbbkalnum              0043ba90 f   LIBCD:ismbbyte.obj
 0001:0003aab0       __ismbbkprint              0043bab0 f   LIBCD:ismbbyte.obj
 0001:0003aad0       __ismbbkpunct              0043bad0 f   LIBCD:ismbbyte.obj
 0001:0003aaf0       __ismbbalnum               0043baf0 f   LIBCD:ismbbyte.obj
 0001:0003ab10       __ismbbalpha               0043bb10 f   LIBCD:ismbbyte.obj
 0001:0003ab30       __ismbbgraph               0043bb30 f   LIBCD:ismbbyte.obj
 0001:0003ab50       __ismbbprint               0043bb50 f   LIBCD:ismbbyte.obj
 0001:0003ab70       __ismbbpunct               0043bb70 f   LIBCD:ismbbyte.obj
 0001:0003ab90       __ismbblead                0043bb90 f   LIBCD:ismbbyte.obj
 0001:0003abb0       __ismbbtrail               0043bbb0 f   LIBCD:ismbbyte.obj
 0001:0003abd0       __ismbbkana                0043bbd0 f   LIBCD:ismbbyte.obj
 0001:0003ac80       __setmbcp                  0043bc80 f   LIBCD:mbctype.obj
 0001:0003b3f0       __getmbcp                  0043c3f0 f   LIBCD:mbctype.obj
 0001:0003b410       ___initmbctable            0043c410 f   LIBCD:mbctype.obj
 0001:0003b440       ___addl                    0043c440 f   LIBCD:mantold.obj
 0001:0003b480       ___add_12                  0043c480 f   LIBCD:mantold.obj
 0001:0003b530       ___shl_12                  0043c530 f   LIBCD:mantold.obj
 0001:0003b590       ___shr_12                  0043c590 f   LIBCD:mantold.obj
 0001:0003b600       ___mtold12                 0043c600 f   LIBCD:mantold.obj
 0001:0003b740       _$I10_OUTPUT               0043c740 f   LIBCD:x10fout.obj
 0001:0003bc60       ___ld12mul                 0043cc60 f   LIBCD:tenpow.obj
 0001:0003c0a0       ___multtenpow12            0043d0a0 f   LIBCD:tenpow.obj
 0001:0003c170       __chsize                   0043d170 f   LIBCD:chsize.obj
 0001:0003c3e0       __setmode                  0043d3e0 f   LIBCD:setmode.obj
 0001:0003c4e0       _socket@12                 0043d4e0 f   ws2_32:WS2_32.dll
 0001:0003c4e6       _WSACleanup@0              0043d4e6 f   ws2_32:WS2_32.dll
 0001:0003c4ec       _WSAStartup@8              0043d4ec f   ws2_32:WS2_32.dll
 0001:0003c4f2       _accept@12                 0043d4f2 f   ws2_32:WS2_32.dll
 0001:0003c4f8       _listen@8                  0043d4f8 f   ws2_32:WS2_32.dll
 0001:0003c4fe       _bind@12                   0043d4fe f   ws2_32:WS2_32.dll
 0001:0003c504       _htons@4                   0043d504 f   ws2_32:WS2_32.dll
 0001:0003c50a       _gethostbyname@4           0043d50a f   ws2_32:WS2_32.dll
 0001:0003c510       _inet_addr@4               0043d510 f   ws2_32:WS2_32.dll
 0001:0003c516       _closesocket@4             0043d516 f   ws2_32:WS2_32.dll
 0001:0003c51c       _recv@16                   0043d51c f   ws2_32:WS2_32.dll
 0001:0003c522       _shutdown@8                0043d522 f   ws2_32:WS2_32.dll
 0001:0003c528       _ioctlsocket@12            0043d528 f   ws2_32:WS2_32.dll
 0001:0003c52e       ___WSAFDIsSet@8            0043d52e f   ws2_32:WS2_32.dll
 0001:0003c534       _select@20                 0043d534 f   ws2_32:WS2_32.dll
 0001:0003c53a       _connect@12                0043d53a f   ws2_32:WS2_32.dll
 0001:0003c540       _send@16                   0043d540 f   ws2_32:WS2_32.dll
 0001:0003c546       _Direct3DCreate9@4         0043d546 f   d3d9:d3d9.dll
 0001:0003c54c       _ExitProcess@4             0043d54c f   kernel32:KERNEL32.dll
 0001:0003c552       _CreateMutexA@12           0043d552 f   kernel32:KERNEL32.dll
 0001:0003c558       _CreateThread@24           0043d558 f   kernel32:KERNEL32.dll
 0001:0003c55e       _ReleaseMutex@4            0043d55e f   kernel32:KERNEL32.dll
 0001:0003c564       _LockResource@4            0043d564 f   kernel32:KERNEL32.dll
 0001:0003c56a       _LoadResource@8            0043d56a f   kernel32:KERNEL32.dll
 0001:0003c570       _FindResourceA@12          0043d570 f   kernel32:KERNEL32.dll
 0001:0003c576       _RtlUnwind@16              0043d576 f   kernel32:KERNEL32.dll
 0001:0003c57c       _GetModuleFileNameA@12     0043d57c f   kernel32:KERNEL32.dll
 0001:0003c582       _GetModuleHandleA@4        0043d582 f   kernel32:KERNEL32.dll
 0001:0003c588       _GetStartupInfoA@4         0043d588 f   kernel32:KERNEL32.dll
 0001:0003c58e       _GetCommandLineA@0         0043d58e f   kernel32:KERNEL32.dll
 0001:0003c594       _GetVersion@0              0043d594 f   kernel32:KERNEL32.dll
 0001:0003c59a       _GetLastError@0            0043d59a f   kernel32:KERNEL32.dll
 0001:0003c5a0       _GetStdHandle@4            0043d5a0 f   kernel32:KERNEL32.dll
 0001:0003c5a6       _WriteFile@20              0043d5a6 f   kernel32:KERNEL32.dll
 0001:0003c5ac       _GetProcAddress@8          0043d5ac f   kernel32:KERNEL32.dll
 0001:0003c5b2       _LoadLibraryA@4            0043d5b2 f   kernel32:KERNEL32.dll
 0001:0003c5b8       _IsBadWritePtr@8           0043d5b8 f   kernel32:KERNEL32.dll
 0001:0003c5be       _IsBadReadPtr@8            0043d5be f   kernel32:KERNEL32.dll
 0001:0003c5c4       _HeapValidate@12           0043d5c4 f   kernel32:KERNEL32.dll
 0001:0003c5ca       _TerminateProcess@8        0043d5ca f   kernel32:KERNEL32.dll
 0001:0003c5d0       _GetCurrentProcess@0       0043d5d0 f   kernel32:KERNEL32.dll
 0001:0003c5d6       _SetConsoleCtrlHandler@8   0043d5d6 f   kernel32:KERNEL32.dll
 0001:0003c5dc       _WideCharToMultiByte@32    0043d5dc f   kernel32:KERNEL32.dll
 0001:0003c5e2       _MultiByteToWideChar@24    0043d5e2 f   kernel32:KERNEL32.dll
 0001:0003c5e8       _LCMapStringA@24           0043d5e8 f   kernel32:KERNEL32.dll
 0001:0003c5ee       _LCMapStringW@24           0043d5ee f   kernel32:KERNEL32.dll
 0001:0003c5f4       _ReadFile@20               0043d5f4 f   kernel32:KERNEL32.dll
 0001:0003c5fa       _RaiseException@16         0043d5fa f   kernel32:KERNEL32.dll
 0001:0003c600       _UnhandledExceptionFilter@4 0043d600 f   kernel32:KERNEL32.dll
 0001:0003c606       _FreeEnvironmentStringsA@4 0043d606 f   kernel32:KERNEL32.dll
 0001:0003c60c       _FreeEnvironmentStringsW@4 0043d60c f   kernel32:KERNEL32.dll
 0001:0003c612       _GetEnvironmentStrings@0   0043d612 f   kernel32:KERNEL32.dll
 0001:0003c618       _GetEnvironmentStringsW@0  0043d618 f   kernel32:KERNEL32.dll
 0001:0003c61e       _SetHandleCount@4          0043d61e f   kernel32:KERNEL32.dll
 0001:0003c624       _GetFileType@4             0043d624 f   kernel32:KERNEL32.dll
 0001:0003c62a       _HeapDestroy@4             0043d62a f   kernel32:KERNEL32.dll
 0001:0003c630       _HeapCreate@12             0043d630 f   kernel32:KERNEL32.dll
 0001:0003c636       _HeapFree@12               0043d636 f   kernel32:KERNEL32.dll
 0001:0003c63c       _VirtualFree@12            0043d63c f   kernel32:KERNEL32.dll
 0001:0003c642       _FlushFileBuffers@4        0043d642 f   kernel32:KERNEL32.dll
 0001:0003c648       _HeapAlloc@12              0043d648 f   kernel32:KERNEL32.dll
 0001:0003c64e       _HeapReAlloc@16            0043d64e f   kernel32:KERNEL32.dll
 0001:0003c654       _VirtualAlloc@16           0043d654 f   kernel32:KERNEL32.dll
 0001:0003c65a       _SetFilePointer@16         0043d65a f   kernel32:KERNEL32.dll
 0001:0003c660       _GetStringTypeA@20         0043d660 f   kernel32:KERNEL32.dll
 0001:0003c666       _GetStringTypeW@16         0043d666 f   kernel32:KERNEL32.dll
 0001:0003c66c       _SetUnhandledExceptionFilter@4 0043d66c f   kernel32:KERNEL32.dll
 0001:0003c672       _IsBadCodePtr@4            0043d672 f   kernel32:KERNEL32.dll
 0001:0003c678       _SetStdHandle@8            0043d678 f   kernel32:KERNEL32.dll
 0001:0003c67e       _CreateFileA@28            0043d67e f   kernel32:KERNEL32.dll
 0001:0003c684       _GetCPInfo@8               0043d684 f   kernel32:KERNEL32.dll
 0001:0003c68a       _GetACP@0                  0043d68a f   kernel32:KERNEL32.dll
 0001:0003c690       _GetOEMCP@0                0043d690 f   kernel32:KERNEL32.dll
 0001:0003c696       _SetEndOfFile@4            0043d696 f   kernel32:KERNEL32.dll
 0001:0003c69c       _RegisterClassA@4          0043d69c f   user32:USER32.dll
 0001:0003c6a2       _PostQuitMessage@4         0043d6a2 f   user32:USER32.dll
 0001:0003c6a8       _GetMessageA@16            0043d6a8 f   user32:USER32.dll
 0001:0003c6ae       _LoadMenuA@8               0043d6ae f   user32:USER32.dll
 0001:0003c6b4       _LoadIconA@8               0043d6b4 f   user32:USER32.dll
 0001:0003c6ba       _LoadBitmapA@8             0043d6ba f   user32:USER32.dll
 0001:0003c6c0       _LoadCursorA@8             0043d6c0 f   user32:USER32.dll
 0001:0003c6c6       _SetCursor@4               0043d6c6 f   user32:USER32.dll
 0001:0003c6cc       _DefWindowProcA@16         0043d6cc f   user32:USER32.dll
 0001:0003c6d2       _CreateWindowExA@48        0043d6d2 f   user32:USER32.dll
 0001:0003c6d8       _DestroyWindow@4           0043d6d8 f   user32:USER32.dll
 0001:0003c6de       _GetClientRect@8           0043d6de f   user32:USER32.dll
 0001:0003c6e4       _GetWindowRect@8           0043d6e4 f   user32:USER32.dll
 0001:0003c6ea       _ShowWindow@8              0043d6ea f   user32:USER32.dll
 0001:0003c6f0       _MoveWindow@24             0043d6f0 f   user32:USER32.dll
 0001:0003c6f6       _EnableWindow@8            0043d6f6 f   user32:USER32.dll
 0001:0003c6fc       _UpdateWindow@4            0043d6fc f   user32:USER32.dll
 0001:0003c702       _SetWindowTextA@8          0043d702 f   user32:USER32.dll
 0001:0003c708       _SetFocus@4                0043d708 f   user32:USER32.dll
 0001:0003c70e       _SendMessageA@16           0043d70e f   user32:USER32.dll
 0001:0003c714       _InvalidateRect@12         0043d714 f   user32:USER32.dll
 0001:0003c71a       _CreateDialogIndirectParamA@20 0043d71a f   user32:USER32.dll
 0001:0003c720       _DialogBoxIndirectParamA@20 0043d720 f   user32:USER32.dll
 0001:0003c726       _EndDialog@8               0043d726 f   user32:USER32.dll
 0001:0003c72c       _GetDlgItem@8              0043d72c f   user32:USER32.dll
 0001:0003c732       _CoInitialize@4            0043d732 f   ole32:ole32.dll
 0001:0003c738       _GetPhysLong@8             0043d738 f   WinIo:WINIO.dll
 0001:0003c73e       _GetPortVal@12             0043d73e f   WinIo:WINIO.dll
 0001:0003c744       _SetPortVal@12             0043d744 f   WinIo:WINIO.dll
 0001:0003c74a       _InstallWinIoDriver@8      0043d74a f   WinIo:WINIO.dll
 0001:0003c750       _InitializeWinIo@0         0043d750 f   WinIo:WINIO.dll
 0001:0003c760       _WinMain@16                0043d760 f   ui:WinMain.obj
 0001:0003c820       __stricmp                  0043d820 f   LIBCD:stricmp.obj
 0001:0003c820       _strcmpi                   0043d820 f   LIBCD:stricmp.obj
 0001:0003c820       __strcmpi                  0043d820 f   LIBCD:stricmp.obj
 0002:0000001c       ??_C@_01PCFE@?2?$AA@       0044001c     CIniFile.obj
 0002:00000020       ??_7CIniFile@@6B@          00440020     CIniFile.obj
 0002:00000024       ??_C@_02MECO@?$CFd?$AA@    00440024     CIniFile.obj
 0002:00000028       ??_C@_02JBAA@?$CFf?$AA@    00440028     CIniFile.obj
 0002:0000002c       ??_7CNStimApp@@6BINStimApp@@@ 0044002c     CNStimApp.obj
 0002:00000048       ??_7CNStimApp@@6BCWinApp@@@ 00440048     CNStimApp.obj
 0002:00000058       ??_7?$CSmartPtr@UINStimProfile@@@@6B@ 00440058     CNStimApp.obj
 0002:0000005c       ??_C@_0CN@JKNC@CSmartPtr?5releasing?5has?5?$CFd?5refer@ 0044005c     CNStimApp.obj
 0002:0000008c       ??_7?$CList@PAUINStimAtomFactory@@PAU1@@@6B@ 0044008c     CNStimApp.obj
 0002:00000090       ??_C@_0N@DFJH@m_pHead?5?$CB?$DN?50?$AA@ 00440090     CNStimApp.obj
 0002:000000a0       ??_C@_0BH@LMGD@c?3?2oi?2nstim?2ui?2clist?4h?$AA@ 004400a0     CNStimApp.obj
 0002:000000b8       ??_7CNStimAtom@@6B@        004400b8     CNStimAtom.obj
 0002:00000108       ??_7?$CList@PAUINStimParam@@PAU1@@@6B@ 00440108     CNStimAtom.obj
 0002:0000010c       ??_C@_0N@BIOC@generic?5atom?$AA@ 0044010c     CNStimAtom.obj
 0002:0000011c       ??_C@_08FPLA@?$CFs?5?$CFs?5?$HL?5?$AA@ 0044011c     CNStimAtom.obj
 0002:00000128       ??_7CNStimAtomCmd@@6B@     00440128     CNStimAtomCmd.obj
 0002:00000144       ??_C@_05KOJN@atom?5?$AA@   00440144     CNStimAtomCmd.obj
 0002:0000014c       ??_C@_0BJ@OADA@no?5such?5atom?5type?5exist?$CB?$AA@ 0044014c     CNStimAtomCmd.obj
 0002:00000168       ??_C@_02GDLA@?$DL?5?$AA@   00440168     CNStimAtomCmd.obj
 0002:0000016c       ??_C@_01FCOA@?5?$AA@       0044016c     CNStimAtomCmd.obj
 0002:00000170       ??_C@_04FEG@blue?$AA@      00440170     CNStimAtomGammaElt.obj
 0002:00000178       ??_C@_05DOGI@green?$AA@    00440178     CNStimAtomGammaElt.obj
 0002:00000180       ??_C@_03CMLD@red?$AA@      00440180     CNStimAtomGammaElt.obj
 0002:00000184       ??_C@_05BBHA@index?$AA@    00440184     CNStimAtomGammaElt.obj
 0002:0000018c       ??_7CNStimAtomGammaElt@@6B@ 0044018c     CNStimAtomGammaElt.obj
 0002:000001dc       ??_C@_08FDBM@gammaelt?$AA@ 004401dc     CNStimAtomGammaElt.obj
 0002:000001e8       ??_C@_0L@PMNJ@gridheight?$AA@ 004401e8     CNStimBinaryNoisePatch.obj
 0002:000001f4       ??_C@_09NCEB@gridwidth?$AA@ 004401f4     CNStimBinaryNoisePatch.obj
 0002:00000200       ??_C@_06HE@ngridy?$AA@     00440200     CNStimBinaryNoisePatch.obj
 0002:00000208       ??_C@_06KKOD@ngridx?$AA@   00440208     CNStimBinaryNoisePatch.obj
 0002:00000210       ??_C@_04OMKF@data?$AA@     00440210     CNStimBinaryNoisePatch.obj
 0002:00000218       ??_7CNStimBinaryNoisePatch@@6B@ 00440218     CNStimBinaryNoisePatch.obj
 0002:00000290       ??_C@_07PNHP@?$FLpatch?$FN?$AA@ 00440290     CNStimBinaryNoisePatch.obj
 0002:00000298       ??_7CDirect3DDevice@@6B@   00440298     CNStimBinaryNoisePatch.obj
 0002:0000029c       ??_7?$CSmartPtr@UIDirect3DDevice9@@@@6B@ 0044029c     CNStimBinaryNoisePatch.obj
 0002:000002a0       ??_7CNStimBitArrayPatchParam@@6B@ 004402a0     CNStimBitArrayPatchParam.obj
 0002:000002e8       ??_C@_08KFLK@BitArray?$AA@ 004402e8     CNStimBitArrayPatchParam.obj
 0002:000002f4       ??_7CNStimBlankPatch@@6B@  004402f4     CNStimBlankPatch.obj
 0002:0000036c       ??_7CNStimBuiltInAtomFactory@@6B@ 0044036c     CNStimBuiltInAtomFactory.obj
 0002:00000384       ??_C@_0M@JPMN@binarynoise?$AA@ 00440384     CNStimBuiltInAtomFactory.obj
 0002:00000390       ??_C@_07JKEL@grating?$AA@  00440390     CNStimBuiltInAtomFactory.obj
 0002:00000398       ??_C@_05PIDP@leech?$AA@    00440398     CNStimBuiltInAtomFactory.obj
 0002:000003a0       ??_C@_09MJMD@colorrect?$AA@ 004403a0     CNStimBuiltInAtomFactory.obj
 0002:000003ac       ??_C@_08OPKL@viewport?$AA@ 004403ac     CNStimBuiltInAtomFactory.obj
 0002:000003b8       ??_C@_03POMC@lpt?$AA@      004403b8     CNStimBuiltInAtomFactory.obj
 0002:000003bc       ??_C@_08DGGP@tgrating?$AA@ 004403bc     CNStimBuiltInAtomFactory.obj
 0002:000003c8       ??_C@_09BLNB@oigrating?$AA@ 004403c8     CNStimBuiltInAtomFactory.obj
 0002:000003d4       ??_C@_09EII@smgrating?$AA@ 004403d4     CNStimBuiltInAtomFactory.obj
 0002:000003e0       ??_7CNStimCmdEngine@@6BIPortCallback@@@ 004403e0     CNStimCmdEngine.obj
 0002:000003f0       ??_7CNStimCmdEngine@@6BIPortServerCallback@@@ 004403f0     CNStimCmdEngine.obj
 0002:00000400       ??_7CNStimCmdEngine@@6BINStimCmdEngine@@@ 00440400     CNStimCmdEngine.obj
 0002:00000414       ??_C@_05HDAD@?$CFs?3?$CFd?$AA@ 00440414     CNStimCmdEngine.obj
 0002:0000041c       ??_C@_07IJDM@0?40?40?40?$AA@ 0044041c     CNStimCmdEngine.obj
 0002:00000424       ??_C@_04MHDN@help?$AA@     00440424     CNStimCmdEngine.obj
 0002:0000042c       ??_7?$CList@PAUIPort@@PAU1@@@6B@ 0044042c     CNStimCmdEngine.obj
 0002:00000430       ??_7?$CSmartPtr@UINStimApp@@@@6B@ 00440430     CNStimCmdEngine.obj
 0002:00000434       ??_7?$CList@PAUINStimCmd@@PAU1@@@6B@ 00440434     CNStimCmdEngine.obj
 0002:00000438       ??_7?$CSmartPtr@UINStimCmd@@@@6B@ 00440438     CNStimCmdEngine.obj
 0002:0000043c       ??_C@_05HIMK@Color?$AA@    0044043c     CNStimColorRectPatch.obj
 0002:00000444       ??_C@_06FOPC@Height?$AA@   00440444     CNStimColorRectPatch.obj
 0002:0000044c       ??_C@_05PJLH@Width?$AA@    0044044c     CNStimColorRectPatch.obj
 0002:00000454       ??_7CNStimColorRectPatch@@6B@ 00440454     CNStimColorRectPatch.obj
 0002:000004cc       ??_7CNStimEngine@@6B@      004404cc     CNStimEngine.obj
 0002:0000054c       ??_C@_0M@LPML@default?4lut?$AA@ 0044054c     CNStimEngine.obj
 0002:00000558       ??_C@_02JKAF@rb?$AA@       00440558     CNStimEngine.obj
 0002:0000055c       ??_C@_0CM@KBAH@Can?8t?5create?5Direct3D?5Window?4?5?5B@ 0044055c     CNStimEngine.obj
 0002:00000588       ??_C@_05EFDD@ERROR?$AA@    00440588     CNStimEngine.obj
 0002:00000590       ??_C@_0M@FOFN@NStimEngine?$AA@ 00440590     CNStimEngine.obj
 0002:0000059c       ??_C@_02NGAF@wb?$AA@       0044059c     CNStimEngine.obj
 0002:000005a0       ??_C@_0BF@LLJI@TicksPerFrame?5?$DN?5?$CFx?$AN?6?$AA@ 004405a0     CNStimEngine.obj
 0002:000005b8       ??_C@_0BI@NJNH@m_dFramerate?5?$DN?5?$CF0?410f?$AN?6?$AA@ 004405b8     CNStimEngine.obj
 0002:000005d0       ??_C@_0M@JBAM@?$CF08x?0?$CF08x?$AN?6?$AA@ 004405d0     CNStimEngine.obj
 0002:000005dc       ??_C@_0BD@OBIK@freq?5?$DN?5?$CF08x?0?$CF08x?$AN?6?$AA@ 004405dc     CNStimEngine.obj
 0002:000005f0       ??_C@_0BN@EKOG@?$CFs?2framerate?4calibration?4txt?$AA@ 004405f0     CNStimEngine.obj
 0002:00000610       __real@4@4006ff00000000000000 00440610     CNStimEngine.obj
 0002:00000614       ??_C@_02JDLK@?$CFx?$AA@    00440614     CNStimEngine.obj
 0002:00000618       ??_C@_0M@IFDM@timelog?4txt?$AA@ 00440618     CNStimEngine.obj
 0002:00000624       ??_C@_0BC@OLCB@?$CFs?2?$CFs?2?$CFs?4?$CF04d?4bmp?$AA@ 00440624     CNStimEngine.obj
 0002:00000638       ??_C@_05KEJO@?$CFs?2?$CFs?$AA@ 00440638     CNStimEngine.obj
 0002:00000640       ??_C@_0BD@HDPK@?$CFd?7?$CFd?7?7?$CFd?7?$CFd?7?$CFd?7?$CFd?$AA@ 00440640     CNStimEngine.obj
 0002:00000654       ??_C@_0CK@ELGD@frame?7frmSkipped?7ticksPassed?7?7dr@ 00440654     CNStimEngine.obj
 0002:00000680       ??_C@_0BF@OPGA@Ticks?5per?5frame?5?$DN?5?$CFx?$AA@ 00440680     CNStimEngine.obj
 0002:00000698       ??_C@_0P@OEHO@PREPERIOD?5?$DN?5?$CFd?$AA@ 00440698     CNStimEngine.obj
 0002:000006a8       ??_C@_09KOB@freq?5?$DN?5?$CFx?$AA@ 004406a8     CNStimEngine.obj
 0002:000006b4       ??_C@_09MIMI@run?$CFd?4log?$AA@ 004406b4     CNStimEngine.obj
 0002:000006c0       ??_C@_0BE@FGBD@nstim_timing_?$CFs?4log?$AA@ 004406c0     CNStimEngine.obj
 0002:000006d4       ??_7?$CSmartPtr@UIDirect3DSurface9@@@@6B@ 004406d4     CNStimEngine.obj
 0002:000006d8       ??_7?$CList@PAUINStimAtom@@PAU1@@@6B@ 004406d8     CNStimEngine.obj
 0002:000006dc       ??_C@_00A@?$AA@            004406dc     CNStimEngine.obj
 0002:000006e0       ??_7CNStimExecAtom@@6B@    004406e0     CNStimExecAtom.obj
 0002:00000730       ??_7CNStimFloatPatchParam@@6B@ 00440730     CNStimFloatPatchParam.obj
 0002:00000778       ??_C@_05PIME@float?$AA@    00440778     CNStimFloatPatchParam.obj
 0002:00000780       ??_C@_0CB@JPGC@creating?5CNStimPatchGrating?5?$CFs?$AN?6@ 00440780     CNStimGratingPatch.obj
 0002:000007a4       ??_C@_09BLO@Luminance?$AA@ 004407a4     CNStimGratingPatch.obj
 0002:000007b0       ??_C@_08DEDL@Contrast?$AA@ 004407b0     CNStimGratingPatch.obj
 0002:000007bc       ??_C@_0BD@PKB@TextureOrientation?$AA@ 004407bc     CNStimGratingPatch.obj
 0002:000007d0       ??_C@_0BC@FLCH@TemporalFrequency?$AA@ 004407d0     CNStimGratingPatch.obj
 0002:000007e4       ??_C@_0N@NDOI@SpatialPhase?$AA@ 004407e4     CNStimGratingPatch.obj
 0002:000007f4       ??_C@_04FCOP@Type?$AA@     004407f4     CNStimGratingPatch.obj
 0002:000007fc       ??_C@_05KCJM@BiDir?$AA@    004407fc     CNStimGratingPatch.obj
 0002:00000804       ??_C@_05JJGP@Alpha?$AA@    00440804     CNStimGratingPatch.obj
 0002:0000080c       ??_C@_03PLNC@ppc?$AA@      0044080c     CNStimGratingPatch.obj
 0002:00000810       ??_C@_0BB@BKJI@SpatialFrequency?$AA@ 00440810     CNStimGratingPatch.obj
 0002:00000824       ??_C@_05EIOF@Shape?$AA@    00440824     CNStimGratingPatch.obj
 0002:0000082c       ??_C@_03DAPE@pix?$AA@      0044082c     CNStimGratingPatch.obj
 0002:00000830       __real@8@4009e100000000000000 00440830     CNStimGratingPatch.obj
 0002:00000838       __real@8@4000c90fdaa208ba2000 00440838     CNStimGratingPatch.obj
 0002:00000840       ??_7CNStimGratingPatch@@6B@ 00440840     CNStimGratingPatch.obj
 0002:000008b8       ??_C@_0CB@DPAC@deleting?5CNStimPatchGrating?5?$CFs?$AN?6@ 004408b8     CNStimGratingPatch.obj
 0002:000008dc       ??_C@_0CA@DBKE@frame?5?$CFd?5inc?$DN?$CFd?5phase?5?$DN?5?$CF0?42f?$AN?6?$AA@ 004408dc     CNStimGratingPatch.obj
 0002:00000900       __real@8@00000000000000000000 00440900     CNStimGratingPatch.obj
 0002:00000908       __real@8@40008000000000000000 00440908     CNStimGratingPatch.obj
 0002:00000910       __real@8@3fff8000000000000000 00440910     CNStimGratingPatch.obj
 0002:00000918       __real@4@40008000000000000000 00440918     CNStimGratingPatch.obj
 0002:0000091c       __real@4@4002a000000000000000 0044091c     CNStimGratingPatch.obj
 0002:00000920       __real@8@3ffe8000000000000000 00440920     CNStimGratingPatch.obj
 0002:00000928       __real@4@3fff8000000000000000 00440928     CNStimGratingPatch.obj
 0002:00000930       __real@8@4002a000000000000000 00440930     CNStimGratingPatch.obj
 0002:00000938       __real@8@4006b400000000000000 00440938     CNStimGratingPatch.obj
 0002:00000940       __real@4@00000000000000000000 00440940     CNStimGratingPatch.obj
 0002:00000944       __real@4@4007b400000000000000 00440944     CNStimGratingPatch.obj
 0002:00000948       ??_7?$CSmartPtr@UIDirect3DTexture9@@@@6B@ 00440948     CNStimGratingPatch.obj
 0002:0000094c       ??_7?$CSmartPtr@UIDirect3DVertexBuffer9@@@@6B@ 0044094c     CNStimGratingPatch.obj
 0002:00000950       ??_7CNStimIntArrayPatchParam@@6B@ 00440950     CNStimIntArrayPatchParam.obj
 0002:00000998       ??_7CNStimIntPatchParam@@6B@ 00440998     CNStimIntPatchParam.obj
 0002:000009e0       ??_C@_03EMIM@int?$AA@      004409e0     CNStimIntPatchParam.obj
 0002:000009e4       ??_7CNStimLeechAtom@@6B@   004409e4     CNStimLeechAtom.obj
 0002:00000a34       ??_7?$CList@PAULeechParamCtrlItem@@PAU1@@@6B@ 00440a34     CNStimLeechAtom.obj
 0002:00000a38       ??_C@_04OHFB@host?$AA@     00440a38     CNStimLeechAtom.obj
 0002:00000a40       ??_C@_0CP@FOII@clear?5?$FLsequence?$HMatom?$FN?$AN?6?5?5?5?5?5?5?5?5?5@ 00440a40     CNStimListCmd.obj
 0002:00000a70       ??_C@_05BDJO@clear?$AA@    00440a70     CNStimListCmd.obj
 0002:00000a78       ??_C@_0BN@BEAJ@exit?$AN?6?5?5?5?5?5?5?5?5?5?5Exit?5NSTIM?$AN?6?$AA@ 00440a78     CNStimListCmd.obj
 0002:00000a98       ??_C@_04BAHI@exit?$AA@     00440a98     CNStimListCmd.obj
 0002:00000aa0       ??_C@_0EK@POGP@list?5?$FLsequence?$HMatom?$FN?$AN?6?5?5?5?5?5?5?5?5?5?5@ 00440aa0     CNStimListCmd.obj
 0002:00000aec       ??_C@_04JOGO@list?$AA@     00440aec     CNStimListCmd.obj
 0002:00000af4       ??_7CNStimCtrlCmd@@6B@     00440af4     CNStimListCmd.obj
 0002:00000b10       ??_C@_09FIHL@setstate?5?$AA@ 00440b10     CNStimListCmd.obj
 0002:00000b1c       ??_C@_05NGOJ@reset?$AA@    00440b1c     CNStimListCmd.obj
 0002:00000b24       ??_C@_05DGKI@snap?5?$AA@   00440b24     CNStimListCmd.obj
 0002:00000b2c       ??_C@_07GCPK@bgcolor?$AA@  00440b2c     CNStimListCmd.obj
 0002:00000b34       ??_C@_09FNHJ@getparam?5?$AA@ 00440b34     CNStimListCmd.obj
 0002:00000b40       ??_C@_09HANL@setparam?5?$AA@ 00440b40     CNStimListCmd.obj
 0002:00000b4c       ??_C@_04LBKD@ping?$AA@     00440b4c     CNStimListCmd.obj
 0002:00000b54       ??_C@_08GLDN@dispmode?$AA@ 00440b54     CNStimListCmd.obj
 0002:00000b60       ??_C@_0N@GCPJ@genframerate?$AA@ 00440b60     CNStimListCmd.obj
 0002:00000b70       ??_C@_09EAGC@framerate?$AA@ 00440b70     CNStimListCmd.obj
 0002:00000b7c       ??_C@_09FNAF@getgamma?5?$AA@ 00440b7c     CNStimListCmd.obj
 0002:00000b88       ??_C@_09HAKH@setgamma?5?$AA@ 00440b88     CNStimListCmd.obj
 0002:00000b94       ??_C@_09HJK@dumpgamma?$AA@ 00440b94     CNStimListCmd.obj
 0002:00000ba0       ??_C@_0L@MPGE@loadgamma?5?$AA@ 00440ba0     CNStimListCmd.obj
 0002:00000bac       ??_C@_08JFLH@preview?5?$AA@ 00440bac     CNStimListCmd.obj
 0002:00000bb8       ??_C@_0L@HEHL@fsequence?5?$AA@ 00440bb8     CNStimListCmd.obj
 0002:00000bc4       ??_C@_09FMCN@sequence?5?$AA@ 00440bc4     CNStimListCmd.obj
 0002:00000bd0       ??_C@_04JPPJ@stop?$AA@     00440bd0     CNStimListCmd.obj
 0002:00000bd8       ??_C@_09PEGI@simulate?5?$AA@ 00440bd8     CNStimListCmd.obj
 0002:00000be4       ??_C@_0M@CGPL@stimulating?$AA@ 00440be4     CNStimListCmd.obj
 0002:00000bf0       ??_C@_0L@NPCJ@stimulate?5?$AA@ 00440bf0     CNStimListCmd.obj
 0002:00000bfc       ??_C@_0L@MBPE@resetatoms?$AA@ 00440bfc     CNStimListCmd.obj
 0002:00000c08       ??_C@_03LKBH@?5?$AN?6?$AA@ 00440c08     CNStimListCmd.obj
 0002:00000c0c       ??_C@_0CF@MICF@?5?5?5?5?5?5?5?5atom?5?$CFd?5of?5type?5?$CFs?5name?5@ 00440c0c     CNStimListCmd.obj
 0002:00000c34       ??_C@_0BH@NEHE@There?5are?5?$CFd?5patches?$AN?6?$AA@ 00440c34     CNStimListCmd.obj
 0002:00000c4c       ??_C@_04EIKA@snap?$AA@     00440c4c     CNStimListCmd.obj
 0002:00000c54       ??_C@_08JLGB@setstate?$AA@ 00440c54     CNStimListCmd.obj
 0002:00000c60       ??_C@_04HNHP@atom?$AA@     00440c60     CNStimListCmd.obj
 0002:00000c68       ??_C@_09JLHL@fsequence?$AA@ 00440c68     CNStimListCmd.obj
 0002:00000c74       ??_C@_09HEJB@ssequence?$AA@ 00440c74     CNStimListCmd.obj
 0002:00000c80       ??_C@_08MNMF@sequence?$AA@ 00440c80     CNStimListCmd.obj
 0002:00000c8c       ??_C@_04EGJF@?5?$AN?6?7?$AA@ 00440c8c     CNStimListCmd.obj
 0002:00000c94       ??_C@_07FHBD@preview?$AA@  00440c94     CNStimListCmd.obj
 0002:00000c9c       ??_C@_08IIFH@simulate?$AA@ 00440c9c     CNStimListCmd.obj
 0002:00000ca8       ??_C@_04JACD@?5?7?$AN?6?$AA@ 00440ca8     CNStimListCmd.obj
 0002:00000cb0       ??_C@_09MJMK@stimulate?$AA@ 00440cb0     CNStimListCmd.obj
 0002:00000cbc       ??_C@_0L@NKOA@?$CFd?0?$CFd?0?$CFd?$AN?6?$AA@ 00440cbc     CNStimListCmd.obj
 0002:00000cc8       ??_C@_0O@LDAK@not?5supported?$AA@ 00440cc8     CNStimListCmd.obj
 0002:00000cd8       ??_C@_08JJCG@getparam?$AA@ 00440cd8     CNStimListCmd.obj
 0002:00000ce4       ??_C@_08DLHF@setparam?$AA@ 00440ce4     CNStimListCmd.obj
 0002:00000cf0       ??_C@_08POMI@?$CFd?0?$CFd?0?$CFd?$AA@ 00440cf0     CNStimListCmd.obj
 0002:00000cfc       ??_C@_08OFCN@getgamma?$AA@ 00440cfc     CNStimListCmd.obj
 0002:00000d08       ??_C@_08EHHO@setgamma?$AA@ 00440d08     CNStimListCmd.obj
 0002:00000d14       ??_C@_09IEGC@loadgamma?$AA@ 00440d14     CNStimListCmd.obj
 0002:00000d20       ??_C@_0P@GJDE@?$CFd?0?5?$CFd?0?5?$CFd?0?5?$CFd?$AA@ 00440d20     CNStimListCmd.obj
 0002:00000d30       ??_C@_05OHJD@?$CF0?48f?$AA@ 00440d30     CNStimListCmd.obj
 0002:00000d38       ??_C@_04FNNE@pong?$AA@     00440d38     CNStimListCmd.obj
 0002:00000d40       ??_7?$CList@UNStimSequenceItemParam@@U1@@@6B@ 00440d40     CNStimListCmd.obj
 0002:00000d44       ??_C@_06BCCA@Toggle?$AA@   00440d44     CNStimLptAtom.obj
 0002:00000d4c       ??_C@_05KBGO@Value?$AA@    00440d4c     CNStimLptAtom.obj
 0002:00000d54       ??_C@_03JIC@Bit?$AA@       00440d54     CNStimLptAtom.obj
 0002:00000d58       ??_C@_04CEAI@Port?$AA@     00440d58     CNStimLptAtom.obj
 0002:00000d60       ??_7CNStimLptAtom@@6B@     00440d60     CNStimLptAtom.obj
 0002:00000db0       ??_7CNStimLptCmd@@6B@      00440db0     CNStimLptCmd.obj
 0002:00000dcc       ??_C@_04LKBO@lpt?5?$AA@    00440dcc     CNStimLptCmd.obj
 0002:00000dd4       ??_C@_09IFLC@OIGrating?$AA@ 00440dd4     CNStimOIGratingPatch.obj
 0002:00000de0       ??_C@_0O@MKJB@FramesPerCond?$AA@ 00440de0     CNStimOIGratingPatch.obj
 0002:00000df0       ??_C@_07LCHE@StimSeq?$AA@  00440df0     CNStimOIGratingPatch.obj
 0002:00000df8       ??_C@_07GNAL@NumCond?$AA@  00440df8     CNStimOIGratingPatch.obj
 0002:00000e00       ??_7CNStimOIGratingPatch@@6B@ 00440e00     CNStimOIGratingPatch.obj
 0002:00000e78       ??_C@_07LCD@?$CF0?42f?$AN?6?$AA@ 00440e78     CNStimOIGratingPatch.obj
 0002:00000e80       __real@8@4007b400000000000000 00440e80     CNStimOIGratingPatch.obj
 0002:00000e88       ??_C@_0N@DCAL@Luminance_?$CFd?$AA@ 00440e88     CNStimOIGratingPatch.obj
 0002:00000e98       ??_C@_0M@LIGN@Contrast_?$CFd?$AA@ 00440e98     CNStimOIGratingPatch.obj
 0002:00000ea4       ??_C@_0P@MNDC@Orientation_?$CFd?$AA@ 00440ea4     CNStimOIGratingPatch.obj
 0002:00000eb4       ??_C@_0BF@IIDC@TemporalFrequency_?$CFd?$AA@ 00440eb4     CNStimOIGratingPatch.obj
 0002:00000ecc       ??_C@_0BA@HAPH@SpatialPhase_?$CFd?$AA@ 00440ecc     CNStimOIGratingPatch.obj
 0002:00000edc       ??_C@_05GHHF@dy_?$CFd?$AA@ 00440edc     CNStimOIGratingPatch.obj
 0002:00000ee4       ??_C@_05ECCH@dx_?$CFd?$AA@ 00440ee4     CNStimOIGratingPatch.obj
 0002:00000eec       ??_C@_08OFNI@Alpha_?$CFd?$AA@ 00440eec     CNStimOIGratingPatch.obj
 0002:00000ef8       ??_C@_0L@LLBG@CenterY_?$CFd?$AA@ 00440ef8     CNStimOIGratingPatch.obj
 0002:00000f04       ??_C@_0L@JOEE@CenterX_?$CFd?$AA@ 00440f04     CNStimOIGratingPatch.obj
 0002:00000f10       ??_C@_08ILBM@BiDir_?$CFd?$AA@ 00440f10     CNStimOIGratingPatch.obj
 0002:00000f1c       ??_C@_0BE@GMFG@SpatialFrequency_?$CFd?$AA@ 00440f1c     CNStimOIGratingPatch.obj
 0002:00000f30       ??_C@_08OKHJ@Viewport?$AA@ 00440f30     CNStimPatch.obj
 0002:00000f3c       ??_C@_09DIHP@BlitAngle?$AA@ 00440f3c     CNStimPatch.obj
 0002:00000f48       ??_C@_08BLKC@BlitType?$AA@ 00440f48     CNStimPatch.obj
 0002:00000f54       ??_C@_07CMPJ@CenterY?$AA@  00440f54     CNStimPatch.obj
 0002:00000f5c       ??_C@_07IGGO@CenterX?$AA@  00440f5c     CNStimPatch.obj
 0002:00000f64       ??_7CNStimPatch@@6B@       00440f64     CNStimPatch.obj
 0002:00000fdc       ??_7CNStimPatchCmd@@6B@    00440fdc     CNStimPatchCmd.obj
 0002:00000ff8       ??_C@_06LMHN@patch?5?$AA@  00440ff8     CNStimPatchCmd.obj
 0002:00001000       ??_C@_02IFMD@?5?$DL?$AA@   00441000     CNStimPatchCmd.obj
 0002:00001004       ??_7CNStimPatchParam@@6B@  00441004     CNStimPatchParam.obj
 0002:0000104c       ??_7CNStimProfile@@6B@     0044104c     CNStimProfile.obj
 0002:0000109c       ??_C@_09BCLL@nstim?4ini?$AA@ 0044109c     CNStimProfile.obj
 0002:000010a8       ??_C@_0BK@JINF@invalid?5conversion?5factor?$AA@ 004410a8     CNStimProfile.obj
 0002:000010c4       ??_C@_03MECL@dpp?$AA@      004410c4     CNStimProfile.obj
 0002:000010c8       ??_C@_03KODH@ppd?$AA@      004410c8     CNStimProfile.obj
 0002:000010cc       ??_C@_04JHLJ@cmpp?$AA@     004410cc     CNStimProfile.obj
 0002:000010d4       ??_C@_04KKKI@ppcm?$AA@     004410d4     CNStimProfile.obj
 0002:000010dc       ??_C@_04GKMB@dpcm?$AA@     004410dc     CNStimProfile.obj
 0002:000010e8       __real@8@3ff98efde9fb30e35000 004410e8     CNStimProfile.obj
 0002:000010f0       ??_C@_04JEJF@cmpd?$AA@     004410f0     CNStimProfile.obj
 0002:000010f8       ??_C@_04LFPB@pdeg?$AA@     004410f8     CNStimProfile.obj
 0002:00001100       ??_C@_02OHFL@cm?$AA@       00441100     CNStimProfile.obj
 0002:00001104       ??_C@_03BOBH@deg?$AA@      00441104     CNStimProfile.obj
 0002:00001108       ??_C@_03HJGG@cpd?$AA@      00441108     CNStimProfile.obj
 0002:0000110c       ??_C@_07NNPF@c?3?2temp?$AA@ 0044110c     CNStimProfile.obj
 0002:00001114       ??_C@_06IPDH@CONFIG?$AA@   00441114     CNStimProfile.obj
 0002:0000111c       ??_C@_07OHFK@LogPath?$AA@  0044111c     CNStimProfile.obj
 0002:00001124       ??_C@_0P@JKPG@ScreenDistance?$AA@ 00441124     CNStimProfile.obj
 0002:00001134       ??_C@_0N@PIKM@ScreenHeight?$AA@ 00441134     CNStimProfile.obj
 0002:00001144       ??_C@_0M@KHJK@ScreenWidth?$AA@ 00441144     CNStimProfile.obj
 0002:00001150       ??_C@_0BD@FPPN@Should?5Hide?5Cursor?$AA@ 00441150     CNStimProfile.obj
 0002:00001164       ??_C@_0BG@EMPE@Windowed?5Resolution?5Y?$AA@ 00441164     CNStimProfile.obj
 0002:0000117c       ??_C@_0BG@OGGD@Windowed?5Resolution?5X?$AA@ 0044117c     CNStimProfile.obj
 0002:00001194       ??_C@_0BF@JABJ@Fullscreen?5Framerate?$AA@ 00441194     CNStimProfile.obj
 0002:000011ac       ??_C@_0BI@MLJD@Fullscreen?5Resolution?5Y?$AA@ 004411ac     CNStimProfile.obj
 0002:000011c4       ??_C@_0BI@GBAE@Fullscreen?5Resolution?5X?$AA@ 004411c4     CNStimProfile.obj
 0002:000011dc       ??_C@_06FJJJ@SCREEN?$AA@   004411dc     CNStimProfile.obj
 0002:000011e4       ??_C@_0L@LEHH@Fullscreen?$AA@ 004411e4     CNStimProfile.obj
 0002:000011f0       ??_C@_0L@ICLB@CONNECTION?$AA@ 004411f0     CNStimProfile.obj
 0002:000011fc       ??_C@_0L@HLAK@TcpIp?5Port?$AA@ 004411fc     CNStimProfile.obj
 0002:00001208       ??_C@_0BO@CDFP@THREAD_PRIORITY_TIME_CRITICAL?$AA@ 00441208     CNStimProfile.obj
 0002:00001228       ??_C@_0BH@CCIK@THREAD_PRIORITY_NORMAL?$AA@ 00441228     CNStimProfile.obj
 0002:00001240       ??_C@_09PING@THREADING?$AA@ 00441240     CNStimProfile.obj
 0002:0000124c       ??_C@_0BA@OEDL@Thread?5Priority?$AA@ 0044124c     CNStimProfile.obj
 0002:0000125c       ??_C@_0P@HCNC@Frame?5drop?5Bit?$AA@ 0044125c     CNStimProfile.obj
 0002:0000126c       ??_C@_0BC@KFHH@StimOn?5Strobe?5Bit?$AA@ 0044126c     CNStimProfile.obj
 0002:00001280       ??_C@_0O@GFJD@Postframe?5Bit?$AA@ 00441280     CNStimProfile.obj
 0002:00001290       ??_C@_0N@LMGG@Preframe?5Bit?$AA@ 00441290     CNStimProfile.obj
 0002:000012a0       ??_C@_0BA@BNJL@SYNCHRONIZATION?$AA@ 004412a0     CNStimProfile.obj
 0002:000012b0       ??_C@_0BA@GMNL@LPT?5Port?5Number?$AA@ 004412b0     CNStimProfile.obj
 0002:000012c0       ??_7CNStimSequence@@6B@    004412c0     CNStimSequence.obj
 0002:000012c4       ??_C@_0L@FBOL@?$CFs?5?$CFd?5?$CFd?$AN?6?$AA@ 004412c4     CNStimSequence.obj
 0002:000012d0       ??_7?$CList@UResetElement@@U1@@@6B@ 004412d0     CNStimSequence.obj
 0002:000012d4       ??_7?$CList@PAUNStimSequenceMarker@@PAU1@@@6B@ 004412d4     CNStimSequence.obj
 0002:000012d8       ??_C@_0P@FINA@rPosition?5?$CB?$DN?50?$AA@ 004412d8     CNStimSequence.obj
 0002:000012e8       ??_7?$CList@PAVCNStimCompiledSequenceMarker@@PAV1@@@6B@ 004412e8     CNStimSequence.obj
 0002:000012ec       ??_7CNStimCompiledSequenceMarker@@6B@ 004412ec     CNStimSequence.obj
 0002:000012f0       ??_7CNStimSMGratingPatch@@6B@ 004412f0     CNStimSMGratingPatch.obj
 0002:00001368       ??_7CNStimStringPatchParam@@6B@ 00441368     CNStimStringPatchParam.obj
 0002:000013b0       ??_C@_0L@LLIG@BlitAngle2?$AA@ 004413b0     CNStimTestGratingPatch.obj
 0002:000013bc       ??_7CNStimTestGratingPatch@@6B@ 004413bc     CNStimTestGratingPatch.obj
 0002:00001434       ??_C@_04PGEK@MaxZ?$AA@     00441434     CNStimViewportAtom.obj
 0002:0000143c       ??_C@_04HLKJ@MinZ?$AA@     0044143c     CNStimViewportAtom.obj
 0002:00001444       ??_C@_01KAHP@y?$AA@        00441444     CNStimViewportAtom.obj
 0002:00001448       ??_C@_01KOI@x?$AA@         00441448     CNStimViewportAtom.obj
 0002:0000144c       ??_7CNStimViewportAtom@@6B@ 0044144c     CNStimViewportAtom.obj
 0002:000014a0       _IID_INStimApp             004414a0     INStimApp_i.obj
 0002:000014b0       _IID_INStimAtom            004414b0     INStimAtom_i.obj
 0002:000014c0       _IID_INStimAtomFactory     004414c0     INStimAtomFactory_i.obj
 0002:000014d0       _IID_INStimCmd             004414d0     INStimCmd_i.obj
 0002:000014e0       _IID_INStimEngine          004414e0     INStimEngine_i.obj
 0002:000014f0       _IID_INStimParam           004414f0     INStimParam_i.obj
 0002:00001500       _IID_INStimPatch           00441500     INStimPatch_i.obj
 0002:00001510       _IID_INStimProfile         00441510     INStimProfile_i.obj
 0002:00001520       _IID_IUnknown              00441520     uuid:unknwn_i_guid0.obj
 0002:00001530       ??_7CDirect3DWnd@@6B@      00441530     d3d:CDirect3DWnd.obj
 0002:00001548       ??_C@_0N@CIJG@CDirect3DWnd?$AA@ 00441548     d3d:CDirect3DWnd.obj
 0002:00001558       ??_C@_0L@LBKN@numrt?5?$DN?5?$CFd?$AA@ 00441558     d3d:CDirect3DWnd.obj
 0002:00001564       ??_7?$CSmartPtr@UIDirect3D9@@@@6B@ 00441564     d3d:CDirect3DWnd.obj
 0002:00001568       ??_7CDirect3DVertexBuffer@@6B@ 00441568     d3d:CDirect3DVertexBuffer.obj
 0002:0000156c       ??_C@_0L@NDD@?$CLtc?5?$DN?5?$CFd?$AN?6?$AA@ 0044156c     d3d:CDirect3DTexture.obj
 0002:00001578       ??_7CDirect3DTexture@@6B@  00441578     d3d:CDirect3DTexture.obj
 0002:0000157c       ??_C@_0L@CNLO@?9tc?5?$DN?5?$CFd?$AN?6?$AA@ 0044157c     d3d:CDirect3DTexture.obj
 0002:00001588       ??_7CDirect3DSurface@@6B@  00441588     d3d:CDirect3DDevice.obj
 0002:0000158c       ??_C@_0BB@HCLC@texture?5?$DN?5?$CF08X?$AN?6?$AA@ 0044158c     d3d:CDirect3DDevice.obj
 0002:000015a0       ??_C@_0BM@KEOB@create?5texture?5successful?$AN?6?$AA@ 004415a0     d3d:CDirect3DDevice.obj
 0002:000015bc       ??_C@_0DM@COJO@CDirect3DDevice?3?3CreateTexture?3?5@ 004415bc     d3d:CDirect3DDevice.obj
 0002:000015f8       ??_C@_0CM@GCOF@CDirect3DDevice?3?3CreateTexture?3?5@ 004415f8     d3d:CDirect3DDevice.obj
 0002:00001624       ??_C@_0CL@KECJ@CDirect3DDevice?3?3CreateTexture?3?5@ 00441624     d3d:CDirect3DDevice.obj
 0002:00001650       ??_C@_0DA@CGKI@CDirect3DDevice?3?3CreateTexture?3?5@ 00441650     d3d:CDirect3DDevice.obj
 0002:00001680       ??_C@_0DK@FAHA@CDirect3DDevice?3?3CreateTexture?3?5@ 00441680     d3d:CDirect3DDevice.obj
 0002:000016bc       ??_C@_0DF@GDFC@CDirect3DDevice?3?3CreateTexture?3?5@ 004416bc     d3d:CDirect3DDevice.obj
 0002:000016f4       ??_C@_0GD@INEH@CDirect3DDevice?3?3CreateTexture?3?5@ 004416f4     d3d:CDirect3DDevice.obj
 0002:00001758       ??_7CDirect3D@@6B@         00441758     d3d:CDirect3D.obj
 0002:0000175c       ??_C@_09OGMP@CDirect3D?$AA@ 0044175c     d3d:CDirect3D.obj
 0002:00001768       ??_C@_0CH@MLDA@Init?$CI?$CJ?5?3?5Direct3DCreate9?5returne@ 00441768     d3d:CDirect3D.obj
 0002:00001790       ??_C@_0BH@IIPB@can?8t?5create?5directx?59?$AA@ 00441790     d3d:CDirect3D.obj
 0002:000017a8       ??_C@_05COLM@error?$AA@    004417a8     d3d:CDirect3D.obj
 0002:000017b0       ??_7CGlobalDebug@@6B@      004417b0     debug:CGlobalDebug.obj
 0002:000017b4       ??_C@_07FMEP@default?$AA@  004417b4     debug:CGlobalDebug.obj
 0002:000017bc       ??_C@_08ONGK@?$CFs?2?$CFs?2?$CFs?$AA@ 004417bc     debug:CGlobalDebug.obj
 0002:000017c8       ??_C@_0CN@OLEG@trying?5to?5purge?5file?5?$CFs?5that?5doe@ 004417c8     debug:CGlobalDebug.obj
 0002:000017f8       ??_C@_0BB@DMNC@c?3?2temp?2?$CFs?2?$CFs?2?$CFs?$AA@ 004417f8     debug:CGlobalDebug.obj
 0002:0000180c       ??_C@_02PIMC@?$AN?6?$AA@   0044180c     debug:CGlobalDebug.obj
 0002:00001810       ??_C@_02JBML@?$CFc?$AA@    00441810     debug:CGlobalDebug.obj
 0002:00001814       ??_7?$CList@PAUDbgMsgFileContext@CGlobalDebug@@PAU12@@@6B@ 00441814     debug:CGlobalDebug.obj
 0002:00001818       _IID_IPort                 00441818     interface:IPort_i.obj
 0002:00001828       _IID_IPortCallback         00441828     interface:IPortCallback_i.obj
 0002:00001838       _IID_IPortServerCallback   00441838     interface:IPortServerCallback_i.obj
 0002:00001848       ??_C@_0BN@DBIH@Can?8t?5create?5a?5socket?5handle?$AA@ 00441848     tcpip:CTcpIpServer.obj
 0002:00001868       ??_C@_0BL@PAOB@CTcpIpServer?3?3CTcpIpServer?$AA@ 00441868     tcpip:CTcpIpServer.obj
 0002:00001884       ??_C@_0BD@MEDL@WSA?5Startup?5failed?$AA@ 00441884     tcpip:CTcpIpServer.obj
 0002:00001898       ??_C@_0CD@FMAM@CTcpIpConnection?3?3CTcpIpConnecti@ 00441898     tcpip:CTcpIpServer.obj
 0002:000018bc       ??_7CTcpIpServer@@6B@      004418bc     tcpip:CTcpIpServer.obj
 0002:000018e4       ??_C@_0DJ@DBBH@Port?5name?5invalid?5?$CImust?5be?5in?5th@ 004418e4     tcpip:CTcpIpServer.obj
 0002:00001920       ??_C@_0BG@CGHC@Port?5name?5is?5too?5long?$AA@ 00441920     tcpip:CTcpIpServer.obj
 0002:00001938       ??_C@_0BH@GFJF@CTcpIpConnection?3?3Open?$AA@ 00441938     tcpip:CTcpIpServer.obj
 0002:00001950       ??_C@_0BO@JINP@CTcpIpConnection?3?3CycleSocket?$AA@ 00441950     tcpip:CTcpIpConnection.obj
 0002:00001970       ??_7CTcpIpConnection@@6B@  00441970     tcpip:CTcpIpConnection.obj
 0002:0000199c       ??_7CWinApp@@6B@           0044199c     ui:CWinApp.obj
 0002:000019ac       ??_7CWnd@@6B@              004419ac     ui:CWnd.obj
 0002:000019c4       ??_7CString@@6B@           004419c4     ui:CString.obj
 0002:000019c8       ??_7CMapHwndPtr@@6B@       004419c8     ui:CMapHwndPtr.obj
 0002:000019cc       ??_7?$CList@UNode@CMapHwndPtr@@ABU12@@@6B@ 004419cc     ui:CMapHwndPtr.obj
 0002:000019d0       ??_7CDialog@@6B@           004419d0     ui:CDialog.obj
 0002:000019ec       ??_7CUtil@@6B@             004419ec     util:CUtil.obj
 0002:000019f0       ??_7CLPTPort@@6B@          004419f0     lpt:CLPTPort.obj
 0002:000019f4       ??_C@_0BK@CANG@failed?5to?5intialize?5winio?$AA@ 004419f4     lpt:CLPTPort.obj
 0002:00001a10       ??_C@_09HOIP@WinIo?4sys?$AA@ 00441a10     lpt:CLPTPort.obj
 0002:00001a1c       ??_C@_0O@FHMD@i386?2chkesp?4c?$AA@ 00441a1c     LIBCD:chkesp.obj
 0002:00001a2c       ??_C@_0NM@ELEE@The?5value?5of?5ESP?5was?5not?5properl@ 00441a2c     LIBCD:chkesp.obj
 0002:00001b08       ??_C@_0L@OFGA@dbgdel?4cpp?$AA@ 00441b08     LIBCD:dbgdel.obj
 0002:00001b14       ??_C@_0CH@PHOC@_BLOCK_TYPE_IS_VALID?$CIpHead?9?$DOnBlo@ 00441b14     LIBCD:dbgdel.obj
 0002:00001b3c       ??_C@_0P@LNLA@format?5?$CB?$DN?5NULL?$AA@ 00441b3c     LIBCD:sprintf.obj
 0002:00001b4c       ??_C@_09NEAG@sprintf?4c?$AA@ 00441b4c     LIBCD:sprintf.obj
 0002:00001b58       ??_C@_0P@OOIN@string?5?$CB?$DN?5NULL?$AA@ 00441b58     LIBCD:sprintf.obj
 0002:00001b68       ??_C@_08CEA@onexit?4c?$AA@ 00441b68     LIBCD:onexit.obj
 0002:00001b74       ??_C@_02JJJH@?6?6?$AA@     00441b74     LIBCD:assert.obj
 0002:00001b78       ??_C@_01BJG@?6?$AA@        00441b78     LIBCD:assert.obj
 0002:00001b7c       ??_C@_03NAME@?4?4?4?$AA@   00441b7c     LIBCD:assert.obj
 0002:00001b80       ??_C@_0CF@JPDF@Microsoft?5Visual?5C?$CL?$CL?5Runtime?5Lib@ 00441b80     LIBCD:assert.obj
 0002:00001ba8       ??_C@_0DN@MHHJ@?$CIPress?5Retry?5to?5debug?5the?5applic@ 00441ba8     LIBCD:assert.obj
 0002:00001be8       ??_C@_0HA@EJLJ@For?5information?5on?5how?5your?5prog@ 00441be8     LIBCD:assert.obj
 0002:00001c58       ??_C@_0N@NOAB@Expression?3?5?$AA@ 00441c58     LIBCD:assert.obj
 0002:00001c68       ??_C@_06JMOL@Line?3?5?$AA@ 00441c68     LIBCD:assert.obj
 0002:00001c70       ??_C@_06FAAO@File?3?5?$AA@ 00441c70     LIBCD:assert.obj
 0002:00001c78       ??_C@_0BH@NNCD@?$DMprogram?5name?5unknown?$DO?$AA@ 00441c78     LIBCD:assert.obj
 0002:00001c90       ??_C@_09PIFG@Program?3?5?$AA@ 00441c90     LIBCD:assert.obj
 0002:00001c9c       ??_C@_0BC@OIMC@Assertion?5failed?$CB?$AA@ 00441c9c     LIBCD:assert.obj
 0002:00001cdc       ??_C@_08PHBD@fclose?4c?$AA@ 00441cdc     LIBCD:fclose.obj
 0002:00001ce8       ??_C@_0M@KJPK@str?5?$CB?$DN?5NULL?$AA@ 00441ce8     LIBCD:fclose.obj
 0002:00001cf4       ??_C@_0BC@IPFL@?$CKmode?5?$CB?$DN?5_T?$CI?8?20?8?$CJ?$AA@ 00441cf4     LIBCD:fopen.obj
 0002:00001d08       ??_C@_0N@BKPP@mode?5?$CB?$DN?5NULL?$AA@ 00441d08     LIBCD:fopen.obj
 0002:00001d18       ??_C@_0BC@GOED@?$CKfile?5?$CB?$DN?5_T?$CI?8?20?8?$CJ?$AA@ 00441d18     LIBCD:fopen.obj
 0002:00001d2c       ??_C@_07OMGG@fopen?4c?$AA@ 00441d2c     LIBCD:fopen.obj
 0002:00001d34       ??_C@_0N@MCKG@file?5?$CB?$DN?5NULL?$AA@ 00441d34     LIBCD:fopen.obj
 0002:00001d44       ??_C@_09DLOM@fprintf?4c?$AA@ 00441d44     LIBCD:fprintf.obj
 0002:00001d5c       ??_C@_0L@OPJO@vfprintf?4c?$AA@ 00441d5c     LIBCD:vfprintf.obj
 0002:00001d68       ??_C@_0BB@BLL@Assertion?5Failed?$AA@ 00441d68     LIBCD:dbgrpt.obj
 0002:00001d7c       ??_C@_05CKBG@Error?$AA@    00441d7c     LIBCD:dbgrpt.obj
 0002:00001d84       ??_C@_07JCGI@Warning?$AA@  00441d84     LIBCD:dbgrpt.obj
 0002:00001d8c       ??_C@_0M@ODEP@?$CFs?$CI?$CFd?$CJ?5?3?5?$CFs?$AA@ 00441d8c     LIBCD:dbgrpt.obj
 0002:00001d98       ??_C@_01FEHD@?$AN?$AA@     00441d98     LIBCD:dbgrpt.obj
 0002:00001d9c       ??_C@_0BD@BEAK@Assertion?5failed?3?5?$AA@ 00441d9c     LIBCD:dbgrpt.obj
 0002:00001db0       ??_C@_0CL@LCCP@_CrtDbgReport?3?5String?5too?5long?5o@ 00441db0     LIBCD:dbgrpt.obj
 0002:00001ddc       ??_C@_0DC@EMDK@Second?5Chance?5Assertion?5Failed?3?5@ 00441ddc     LIBCD:dbgrpt.obj
 0002:00001e10       ??_C@_09NJAK@wsprintfA?$AA@ 00441e10     LIBCD:dbgrpt.obj
 0002:00001e1c       ??_C@_0L@HKL@user32?4dll?$AA@ 00441e1c     LIBCD:dbgrpt.obj
 0002:00001e28       ??_C@_0CD@GCMD@Microsoft?5Visual?5C?$CL?$CL?5Debug?5Libra@ 00441e28     LIBCD:dbgrpt.obj
 0002:00001e4c       ??_C@_0FD@EBDD@Debug?5?$CFs?$CB?6?6Program?3?5?$CFs?$CFs?$CFs?$CFs?$CFs?$CFs@ 00441e4c     LIBCD:dbgrpt.obj
 0002:00001ea0       ??_C@_09DCKN@?6Module?3?5?$AA@ 00441ea0     LIBCD:dbgrpt.obj
 0002:00001eac       ??_C@_07HJII@?6File?3?5?$AA@ 00441eac     LIBCD:dbgrpt.obj
 0002:00001eb4       ??_C@_07LFGN@?6Line?3?5?$AA@ 00441eb4     LIBCD:dbgrpt.obj
 0002:00001ebc       ??_C@_0HD@BHFH@?6?6For?5information?5on?5how?5your?5pr@ 00441ebc     LIBCD:dbgrpt.obj
 0002:00001f30       ??_C@_08GFHP@dbgrpt?4c?$AA@ 00441f30     LIBCD:dbgrpt.obj
 0002:00001f3c       ??_C@_0BG@FBEA@szUserMessage?5?$CB?$DN?5NULL?$AA@ 00441f3c     LIBCD:dbgrpt.obj
 0002:00001f54       ??_C@_06DPMO@Client?$AA@   00441f54     LIBCD:dbgheap.obj
 0002:00001f5c       ??_C@_06BAFM@Ignore?$AA@   00441f5c     LIBCD:dbgheap.obj
 0002:00001f64       ??_C@_03DICE@CRT?$AA@      00441f64     LIBCD:dbgheap.obj
 0002:00001f68       ??_C@_06BILL@Normal?$AA@   00441f68     LIBCD:dbgheap.obj
 0002:00001f70       ??_C@_04NEN@Free?$AA@      00441f70     LIBCD:dbgheap.obj
 0002:00001f78       ??_C@_0DC@CGID@Error?3?5memory?5allocation?3?5bad?5me@ 00441f78     LIBCD:dbgheap.obj
 0002:00001fac       ??_C@_0CE@FMIA@Invalid?5allocation?5size?3?5?$CFu?5byte@ 00441fac     LIBCD:dbgheap.obj
 0002:00001fd0       ??_C@_02DILL@?$CFs?$AA@    00441fd0     LIBCD:dbgheap.obj
 0002:00001fd4       ??_C@_0CB@CPBI@Client?5hook?5allocation?5failure?4?6@ 00441fd4     LIBCD:dbgheap.obj
 0002:00001ff8       ??_C@_0DF@DKHF@Client?5hook?5allocation?5failure?5a@ 00441ff8     LIBCD:dbgheap.obj
 0002:00002030       ??_C@_09IMJC@dbgheap?4c?$AA@ 00442030     LIBCD:dbgheap.obj
 0002:0000203c       ??_C@_0BC@EPKL@_CrtCheckMemory?$CI?$CJ?$AA@ 0044203c     LIBCD:dbgheap.obj
 0002:00002050       ??_C@_0BK@JDHA@_pFirstBlock?5?$DN?$DN?5pOldBlock?$AA@ 00442050     LIBCD:dbgheap.obj
 0002:0000206c       ??_C@_0BJ@NMEF@_pLastBlock?5?$DN?$DN?5pOldBlock?$AA@ 0044206c     LIBCD:dbgheap.obj
 0002:00002088       ??_C@_0DC@BOCN@fRealloc?5?$HM?$HM?5?$CI?$CBfRealloc?5?$CG?$CG?5pNewBl@ 00442088     LIBCD:dbgheap.obj
 0002:000020bc       ??_C@_0DK@DKOM@_BLOCK_TYPE?$CIpOldBlock?9?$DOnBlockUse@ 004420bc     LIBCD:dbgheap.obj
 0002:000020f8       ??_C@_0EF@EDKM@pOldBlock?9?$DOnLine?5?$DN?$DN?5IGNORE_LINE?5@ 004420f8     LIBCD:dbgheap.obj
 0002:00002140       ??_C@_0CC@GPMO@_CrtIsValidHeapPointer?$CIpUserData@ 00442140     LIBCD:dbgheap.obj
 0002:00002164       ??_C@_0CN@FHGE@Allocation?5too?5large?5or?5negative@ 00442164     LIBCD:dbgheap.obj
 0002:00002194       ??_C@_0CE@EAMN@Client?5hook?5re?9allocation?5failur@ 00442194     LIBCD:dbgheap.obj
 0002:000021b8       ??_C@_0DI@KKMM@Client?5hook?5re?9allocation?5failur@ 004421b8     LIBCD:dbgheap.obj
 0002:000021f0       ??_C@_0BG@JCEC@_pFirstBlock?5?$DN?$DN?5pHead?$AA@ 004421f0     LIBCD:dbgheap.obj
 0002:00002208       ??_C@_0BF@NLNN@_pLastBlock?5?$DN?$DN?5pHead?$AA@ 00442208     LIBCD:dbgheap.obj
 0002:00002220       ??_C@_0BO@PLHH@pHead?9?$DOnBlockUse?5?$DN?$DN?5nBlockUse?$AA@ 00442220     LIBCD:dbgheap.obj
 0002:00002240       ??_C@_0DN@KKIO@pHead?9?$DOnLine?5?$DN?$DN?5IGNORE_LINE?5?$CG?$CG?5p@ 00442240     LIBCD:dbgheap.obj
 0002:00002280       ??_C@_0CK@OJNB@DAMAGE?3?5after?5?$CFhs?5block?5?$CI?$CD?$CFd?$CJ?5at@ 00442280     LIBCD:dbgheap.obj
 0002:000022ac       ??_C@_0CL@IJIL@DAMAGE?3?5before?5?$CFhs?5block?5?$CI?$CD?$CFd?$CJ?5a@ 004422ac     LIBCD:dbgheap.obj
 0002:000022d8       ??_C@_0BL@MBNA@Client?5hook?5free?5failure?4?6?$AA@ 004422d8     LIBCD:dbgheap.obj
 0002:000022f4       ??_C@_0DK@EKKL@memory?5check?5error?5at?50x?$CF08X?5?$DN?50@ 004422f4     LIBCD:dbgheap.obj
 0002:00002330       ??_C@_0CJ@GCII@?$CFhs?5located?5at?50x?$CF08X?5is?5?$CFu?5byte@ 00442330     LIBCD:dbgheap.obj
 0002:0000235c       ??_C@_0CA@EJPI@?$CFhs?5allocated?5at?5file?5?$CFhs?$CI?$CFd?$CJ?4?6?$AA@ 0044235c     LIBCD:dbgheap.obj
 0002:0000237c       ??_C@_0CJ@LHHG@DAMAGE?3?5on?5top?5of?5Free?5block?5at?5@ 0044237c     LIBCD:dbgheap.obj
 0002:000023a8       ??_C@_07GJHM@DAMAGED?$AA@  004423a8     LIBCD:dbgheap.obj
 0002:000023b0       ??_C@_0CL@ODIE@_heapchk?5fails?5with?5unknown?5retu@ 004423b0     LIBCD:dbgheap.obj
 0002:000023dc       ??_C@_0CC@EHNC@_heapchk?5fails?5with?5_HEAPBADPTR?4@ 004423dc     LIBCD:dbgheap.obj
 0002:00002400       ??_C@_0CC@JNDP@_heapchk?5fails?5with?5_HEAPBADEND?4@ 00442400     LIBCD:dbgheap.obj
 0002:00002424       ??_C@_0CD@DNMG@_heapchk?5fails?5with?5_HEAPBADNODE@ 00442424     LIBCD:dbgheap.obj
 0002:00002448       ??_C@_0CE@JMCB@_heapchk?5fails?5with?5_HEAPBADBEGI@ 00442448     LIBCD:dbgheap.obj
 0002:0000246c       ??_C@_0CD@MEMI@Bad?5memory?5block?5found?5at?50x?$CF08X@ 0044246c     LIBCD:dbgheap.obj
 0002:00002490       ??_C@_0CI@GMAO@_CrtMemCheckPoint?3?5NULL?5state?5po@ 00442490     LIBCD:dbgheap.obj
 0002:000024b8       ??_C@_0CI@MNAE@_CrtMemDifference?3?5NULL?5state?5po@ 004424b8     LIBCD:dbgheap.obj
 0002:000024e0       ??_C@_0BH@PKIJ@Object?5dump?5complete?4?6?$AA@ 004424e0     LIBCD:dbgheap.obj
 0002:000024f8       ??_C@_0DB@DBPF@crt?5block?5at?50x?$CF08X?0?5subtype?5?$CFx?0@ 004424f8     LIBCD:dbgheap.obj
 0002:0000252c       ??_C@_0CI@JLM@normal?5block?5at?50x?$CF08X?0?5?$CFu?5bytes@ 0044252c     LIBCD:dbgheap.obj
 0002:00002554       ??_C@_0DE@PFEA@client?5block?5at?50x?$CF08X?0?5subtype?5@ 00442554     LIBCD:dbgheap.obj
 0002:00002588       ??_C@_06MBCE@?$HL?$CFld?$HN?5?$AA@ 00442588     LIBCD:dbgheap.obj
 0002:00002590       ??_C@_0L@BLDJ@?$CFhs?$CI?$CFd?$CJ?5?3?5?$AA@ 00442590     LIBCD:dbgheap.obj
 0002:0000259c       ??_C@_0BE@FEMA@?$CDFile?5Error?$CD?$CI?$CFd?$CJ?5?3?5?$AA@ 0044259c     LIBCD:dbgheap.obj
 0002:000025b0       ??_C@_0BE@FPPM@Dumping?5objects?5?9?$DO?6?$AA@ 004425b0     LIBCD:dbgheap.obj
 0002:000025c4       ??_C@_0BA@POLM@?5Data?3?5?$DM?$CFs?$DO?5?$CFs?6?$AA@ 004425c4     LIBCD:dbgheap.obj
 0002:000025d4       ??_C@_05JLAO@?$CF?42X?5?$AA@ 004425d4     LIBCD:dbgheap.obj
 0002:000025dc       ??_C@_0BI@KONA@Detected?5memory?5leaks?$CB?6?$AA@ 004425dc     LIBCD:dbgheap.obj
 0002:000025f4       ??_C@_0BP@LCCN@Total?5allocations?3?5?$CFld?5bytes?4?6?$AA@ 004425f4     LIBCD:dbgheap.obj
 0002:00002614       ??_C@_0CB@COID@Largest?5number?5used?3?5?$CFld?5bytes?4?6@ 00442614     LIBCD:dbgheap.obj
 0002:00002638       ??_C@_0BO@MEJD@?$CFld?5bytes?5in?5?$CFld?5?$CFhs?5Blocks?4?6?$AA@ 00442638     LIBCD:dbgheap.obj
 0002:00002658       ??_C@_0DP@IHIN@?$CI?$CCinconsistent?5IOB?5fields?$CC?0?5stre@ 00442658     LIBCD:_flsbuf.obj
 0002:00002698       ??_C@_09LGEI@_flsbuf?4c?$AA@ 00442698     LIBCD:_flsbuf.obj
 0002:000026a4       ___lookuptable             004426a4     LIBCD:output.obj
 0002:00002700       ??_C@_1O@POHA@?$AA?$CI?$AAn?$AAu?$AAl?$AAl?$AA?$CJ?$AA?$AA@ 00442700     LIBCD:output.obj
 0002:00002710       ??_C@_06ONKE@?$CInull?$CJ?$AA@ 00442710     LIBCD:output.obj
 0002:00002718       ??_C@_08MIHI@output?4c?$AA@ 00442718     LIBCD:output.obj
 0002:00002724       ??_C@_0P@PIHB@ch?5?$CB?$DN?5_T?$CI?8?20?8?$CJ?$AA@ 00442724     LIBCD:output.obj
 0002:00002734       ??_C@_0BK@JEGK@IsProcessorFeaturePresent?$AA@ 00442734     LIBCD:testfdiv.obj
 0002:00002750       ??_C@_08OBID@KERNEL32?$AA@ 00442750     LIBCD:testfdiv.obj
 0002:0000275c       ??_C@_05OFLO@e?$CL000?$AA@ 0044275c     LIBCD:cvt.obj
 0002:000027e0       ??_C@_0BD@NJFP@GetLastActivePopup?$AA@ 004427e0     LIBCD:crtmbox.obj
 0002:000027f4       ??_C@_0BA@GILI@GetActiveWindow?$AA@ 004427f4     LIBCD:crtmbox.obj
 0002:00002804       ??_C@_0M@PKCK@MessageBoxA?$AA@ 00442804     LIBCD:crtmbox.obj
 0002:00002810       ??_C@_09GCII@setvbuf?4c?$AA@ 00442810     LIBCD:setvbuf.obj
 0002:0000281c       ??_C@_07HPAH@_file?4c?$AA@ 0044281c     LIBCD:_file.obj
 0002:00002838       __DEFAULT_CW_in_mem        00442838     LIBCD:common.obj
 0002:0000283a       __pi_by_2_to_61            0044283a     LIBCD:common.obj
 0002:00002874       ??_C@_01A@?$AA?$AA@        00442874     LIBCD:a_map.obj
 0002:00002878       ??_C@_13A@?$AA?$AA?$AA?$AA@ 00442878     LIBCD:a_map.obj
 0002:00002898       ??_C@_0L@JIE@_freebuf?4c?$AA@ 00442898     LIBCD:_freebuf.obj
 0002:000028a4       ??_C@_0P@FHEA@stream?5?$CB?$DN?5NULL?$AA@ 004428a4     LIBCD:_freebuf.obj
 0002:000028b4       ??_C@_09DNOI@_filbuf?4c?$AA@ 004428b4     LIBCD:_filbuf.obj
 0002:000028c0       ??_C@_07INLA@_open?4c?$AA@ 004428c0     LIBCD:_open.obj
 0002:000028c8       ??_C@_0BB@COCE@filename?5?$CB?$DN?5NULL?$AA@ 004428c8     LIBCD:_open.obj
 0002:000028dc       ??_C@_08HJEP@stream?4c?$AA@ 004428dc     LIBCD:stream.obj
 0002:000028e8       ??_C@_09JNND@_sftbuf?4c?$AA@ 004428e8     LIBCD:_sftbuf.obj
 0002:000028f4       ??_C@_0BH@EOPG@flag?5?$DN?$DN?50?5?$HM?$HM?5flag?5?$DN?$DN?51?$AA@ 004428f4     LIBCD:_sftbuf.obj
 0002:0000290c       ??_C@_03GAFO@_yn?$AA@      0044290c     LIBCD:fpexcept.obj
 0002:00002910       ??_C@_03GNLD@_y1?$AA@      00442910     LIBCD:fpexcept.obj
 0002:00002914       ??_C@_03MHCE@_y0?$AA@      00442914     LIBCD:fpexcept.obj
 0002:00002918       ??_C@_05PAK@frexp?$AA@     00442918     LIBCD:fpexcept.obj
 0002:00002920       ??_C@_04JKCH@fmod?$AA@     00442920     LIBCD:fpexcept.obj
 0002:00002928       ??_C@_06GGHF@_hypot?$AA@   00442928     LIBCD:fpexcept.obj
 0002:00002930       ??_C@_05JNMC@_cabs?$AA@    00442930     LIBCD:fpexcept.obj
 0002:00002938       ??_C@_05MEKH@ldexp?$AA@    00442938     LIBCD:fpexcept.obj
 0002:00002940       ??_C@_04KAOJ@modf?$AA@     00442940     LIBCD:fpexcept.obj
 0002:00002948       ??_C@_04EHAJ@fabs?$AA@     00442948     LIBCD:fpexcept.obj
 0002:00002950       ??_C@_05MFBN@floor?$AA@    00442950     LIBCD:fpexcept.obj
 0002:00002958       ??_C@_04JJMP@ceil?$AA@     00442958     LIBCD:fpexcept.obj
 0002:00002960       ??_C@_03JLPI@tan?$AA@      00442960     LIBCD:fpexcept.obj
 0002:00002964       ??_C@_03DLFL@cos?$AA@      00442964     LIBCD:fpexcept.obj
 0002:00002968       ??_C@_03JAMN@sin?$AA@      00442968     LIBCD:fpexcept.obj
 0002:0000296c       ??_C@_04LMBE@sqrt?$AA@     0044296c     LIBCD:fpexcept.obj
 0002:00002974       ??_C@_05BFPO@atan2?$AA@    00442974     LIBCD:fpexcept.obj
 0002:0000297c       ??_C@_04EAGN@atan?$AA@     0044297c     LIBCD:fpexcept.obj
 0002:00002984       ??_C@_04OAMO@acos?$AA@     00442984     LIBCD:fpexcept.obj
 0002:0000298c       ??_C@_04ELFI@asin?$AA@     0044298c     LIBCD:fpexcept.obj
 0002:00002994       ??_C@_04LFAD@tanh?$AA@     00442994     LIBCD:fpexcept.obj
 0002:0000299c       ??_C@_04PFKD@cosh?$AA@     0044299c     LIBCD:fpexcept.obj
 0002:000029a4       ??_C@_04NPAI@sinh?$AA@     004429a4     LIBCD:fpexcept.obj
 0002:000029ac       ??_C@_05IJHH@log10?$AA@    004429ac     LIBCD:fpexcept.obj
 0002:000029b4       ??_C@_03BGKD@log?$AA@      004429b4     LIBCD:fpexcept.obj
 0002:000029b8       ??_C@_03EGFG@pow?$AA@      004429b8     LIBCD:fpexcept.obj
 0002:000029bc       ??_C@_03CDGJ@exp?$AA@      004429bc     LIBCD:fpexcept.obj
 0002:000029c0       ??_C@_09IGKD@stdenvp?4c?$AA@ 004429c0     LIBCD:stdenvp.obj
 0002:000029cc       ??_C@_09MPMN@stdargv?4c?$AA@ 004429cc     LIBCD:stdargv.obj
 0002:000029d8       ??_C@_07BNNE@a_env?4c?$AA@ 004429d8     LIBCD:a_env.obj
 0002:000029e0       ??_C@_08KFDJ@ioinit?4c?$AA@ 004429e0     LIBCD:ioinit.obj
 0002:000029ec       ??_C@_0P@GGKG@runtime?5error?5?$AA@ 004429ec     LIBCD:crt0msg.obj
 0002:000029fc       ??_C@_0O@DELO@TLOSS?5error?$AN?6?$AA@ 004429fc     LIBCD:crt0msg.obj
 0002:00002a0c       ??_C@_0N@OMLL@SING?5error?$AN?6?$AA@ 00442a0c     LIBCD:crt0msg.obj
 0002:00002a1c       ??_C@_0P@OJAK@DOMAIN?5error?$AN?6?$AA@ 00442a1c     LIBCD:crt0msg.obj
 0002:00002a2c       ??_C@_0CF@EANP@R6028?$AN?6?9?5unable?5to?5initialize?5he@ 00442a2c     LIBCD:crt0msg.obj
 0002:00002a54       ??_C@_0DF@ECGN@R6027?$AN?6?9?5not?5enough?5space?5for?5lo@ 00442a54     LIBCD:crt0msg.obj
 0002:00002a8c       ??_C@_0DF@FKAC@R6026?$AN?6?9?5not?5enough?5space?5for?5st@ 00442a8c     LIBCD:crt0msg.obj
 0002:00002ac4       ??_C@_0CG@DPMN@R6025?$AN?6?9?5pure?5virtual?5function?5c@ 00442ac4     LIBCD:crt0msg.obj
 0002:00002aec       ??_C@_0DF@CKIP@R6024?$AN?6?9?5not?5enough?5space?5for?5_o@ 00442aec     LIBCD:crt0msg.obj
 0002:00002b24       ??_C@_0CJ@GGOE@R6019?$AN?6?9?5unable?5to?5open?5console?5@ 00442b24     LIBCD:crt0msg.obj
 0002:00002b50       ??_C@_0CB@LBOB@R6018?$AN?6?9?5unexpected?5heap?5error?$AN?6@ 00442b50     LIBCD:crt0msg.obj
 0002:00002b74       ??_C@_0CN@FPEG@R6017?$AN?6?9?5unexpected?5multithread?5@ 00442b74     LIBCD:crt0msg.obj
 0002:00002ba4       ??_C@_0CM@OBIC@R6016?$AN?6?9?5not?5enough?5space?5for?5th@ 00442ba4     LIBCD:crt0msg.obj
 0002:00002bd0       ??_C@_0CB@HPAL@?$AN?6abnormal?5program?5termination?$AN?6@ 00442bd0     LIBCD:crt0msg.obj
 0002:00002bf4       ??_C@_0CM@JOOB@R6009?$AN?6?9?5not?5enough?5space?5for?5en@ 00442bf4     LIBCD:crt0msg.obj
 0002:00002c20       ??_C@_0CK@OIBL@R6008?$AN?6?9?5not?5enough?5space?5for?5ar@ 00442c20     LIBCD:crt0msg.obj
 0002:00002c4c       ??_C@_0CF@LKPB@R6002?$AN?6?9?5floating?5point?5not?5load@ 00442c4c     LIBCD:crt0msg.obj
 0002:00002c74       ??_C@_0BK@DEOK@Runtime?5Error?$CB?6?6Program?3?5?$AA@ 00442c74     LIBCD:crt0msg.obj
 0002:00002c90       ??_C@_0L@HE@vsprintf?4c?$AA@ 00442c90     LIBCD:vsnprint.obj
 0002:00002c9c       ??_C@_09EMDO@_getbuf?4c?$AA@ 00442c9c     LIBCD:_getbuf.obj
 0002:00002cb4       ??_C@_09LNLM@osfinfo?4c?$AA@ 00442cb4     LIBCD:osfinfo.obj
 0002:00002cc0       ??_C@_06PAPI@1?$CDQNAN?$AA@ 00442cc0     LIBCD:x10fout.obj
 0002:00002cc8       ??_C@_05BGNL@1?$CDINF?$AA@ 00442cc8     LIBCD:x10fout.obj
 0002:00002cd0       ??_C@_05EDPF@1?$CDIND?$AA@ 00442cd0     LIBCD:x10fout.obj
 0002:00002cd8       ??_C@_06LKFM@1?$CDSNAN?$AA@ 00442cd8     LIBCD:x10fout.obj
 0002:00002ce0       ??_C@_08EIOK@chsize?4c?$AA@ 00442ce0     LIBCD:chsize.obj
 0002:00002cec       ??_C@_09NPGF@size?5?$DO?$DN?50?$AA@ 00442cec     LIBCD:chsize.obj
 0002:00002cf8       _IID_ITcpIpServer          00442cf8     interface:ITcpIpServer_i.obj
 0002:00002d08       _IID_IPortServer           00442d08     interface:IPortServer_i.obj
 0002:00002d18       _IID_ITcpIpConnection      00442d18     interface:ITcpIpConnection_i.obj
 0002:00002d28       ??_C@_0CB@KJBH@This?5application?5needs?5a?5CWinApp@ 00442d28     ui:WinMain.obj
 0003:00000000       ___xc_a                    00445000     LIBCD:crt0init.obj
 0003:0000000c       ___xc_z                    0044500c     LIBCD:crt0init.obj
 0003:00000010       ___xi_a                    00445010     LIBCD:crt0init.obj
 0003:00000024       ___xi_z                    00445024     LIBCD:crt0init.obj
 0003:00000028       ___xp_a                    00445028     LIBCD:crt0init.obj
 0003:00000030       ___xp_z                    00445030     LIBCD:crt0init.obj
 0003:00000034       ___xt_a                    00445034     LIBCD:crt0init.obj
 0003:0000003c       ___xt_z                    0044503c     LIBCD:crt0init.obj
 0003:00000040       __GUID_85d85ead_4839_4085_93d3_30c8b3df8262 00445040     CNStimEngine.obj
 0003:00000050       __GUID_0cfbaf3a_9ff6_429a_99b3_a2796af8b89b 00445050     CNStimEngine.obj
 0003:00000060       __GUID_d0223b96_bf7a_43fd_92bd_a43b0d82b9eb 00445060     CNStimEngine.obj
 0003:00000070       ?m_pPatchType@CNStimGratingPatch@@0PADA 00445070     CNStimGratingPatch.obj
 0003:00000078       __GUID_85c31227_3de5_4f00_9b3a_f11ac38c18b5 00445078     CNStimGratingPatch.obj
 0003:00000088       __GUID_b64bb1b5_fd70_4df6_bf91_19d0a12455e3 00445088     CNStimGratingPatch.obj
 0003:00000098       ?m_pPatchType@CNStimOIGratingPatch@@0PBDB 00445098     CNStimOIGratingPatch.obj
 0003:0000009c       ?m_pPatchType@CNStimSMGratingPatch@@0PADA 0044509c     CNStimSMGratingPatch.obj
 0003:000000a0       ?m_pPatchType@CNStimTestGratingPatch@@0PADA 004450a0     CNStimTestGratingPatch.obj
 0003:000000a8       __GUID_81bdcbca_64d4_426d_ae8d_ad0147f4275c 004450a8     d3d:CDirect3DWnd.obj
 0003:000000b8       ?IOBaseAddr@CLPTPort@@0PAKA 004450b8     lpt:CLPTPort.obj
 0003:000000d0       __fltused                  004450d0     LIBCD:fpinit.obj
 0003:000000d4       __ldused                   004450d4     LIBCD:fpinit.obj
 0003:000000d8       __FPinit                   004450d8     LIBCD:fpinit.obj
 0003:000000dc       __FPmtinit                 004450dc     LIBCD:fpinit.obj
 0003:000000e0       __FPmtterm                 004450e0     LIBCD:fpinit.obj
 0003:000000e4       __NLG_Destination          004450e4     LIBCD:exsup.obj
 0003:0000017c       __aexit_rtn                0044517c     LIBCD:wincrt0.obj
 0003:00000180       ___app_type                00445180     LIBCD:wincrt0.obj
 0003:00000190       __crtAssertBusy            00445190     LIBCD:dbgrpt.obj
 0003:00000194       __CrtDbgMode               00445194     LIBCD:dbgrpt.obj
 0003:000001a0       __CrtDbgFile               004451a0     LIBCD:dbgrpt.obj
 0003:000001b8       __crtDbgFlag               004451b8     LIBCD:dbgheap.obj
 0003:000001c0       __crtBreakAlloc            004451c0     LIBCD:dbgheap.obj
 0003:000001dc       ___nullstring              004451dc     LIBCD:output.obj
 0003:000001e0       ___wnullstring             004451e0     LIBCD:output.obj
 0003:000001e4       __pctype                   004451e4     LIBCD:ctype.obj
 0003:000001e8       __pwctype                  004451e8     LIBCD:ctype.obj
 0003:000001ec       __ctype                    004451ec     LIBCD:ctype.obj
 0003:000003f0       ___mb_cur_max              004453f0     LIBCD:nlsdata1.obj
 0003:000003f4       ___decimal_point           004453f4     LIBCD:nlsdata1.obj
 0003:000003f8       ___decimal_point_length    004453f8     LIBCD:nlsdata1.obj
 0003:00000400       __cfltcvt_tab              00445400     LIBCD:cmiscdat.obj
 0003:00000420       ?__pUnexpected@@3P6AXXZA   00445420     LIBCD:hooks.obj
 0003:00000424       ?__pInconsistency@@3P6AXXZA 00445424     LIBCD:hooks.obj
 0003:00000430       __iob                      00445430     LIBCD:_file.obj
 0003:000006b0       __indefinite               004456b0     LIBCD:87disp.obj
 0003:000006ba       __piby2                    004456ba     LIBCD:87disp.obj
 0003:000006cc       __cpower                   004456cc     LIBCD:87disp.obj
 0003:000007b8       __d_inf                    004457b8     LIBCD:util.obj
 0003:000007c0       __d_ind                    004457c0     LIBCD:util.obj
 0003:000007c8       __d_max                    004457c8     LIBCD:util.obj
 0003:000007d0       __d_min                    004457d0     LIBCD:util.obj
 0003:000007d8       __d_mzero                  004457d8     LIBCD:util.obj
 0003:000007f8       __XcptActTab               004457f8     LIBCD:winxfltr.obj
 0003:00000870       __First_FPE_Indx           00445870     LIBCD:winxfltr.obj
 0003:00000874       __Num_FPE                  00445874     LIBCD:winxfltr.obj
 0003:00000878       __XcptActTabCount          00445878     LIBCD:winxfltr.obj
 0003:0000087c       __fpecode                  0044587c     LIBCD:winxfltr.obj
 0003:00000880       ___badioinfo               00445880     LIBCD:ioinit.obj
 0003:00000888       __amblksiz                 00445888     LIBCD:heapinit.obj
 0003:00000a88       __pfnAllocHook             00445a88     LIBCD:dbghook.obj
 0003:00000a8c       ___sbh_threshold           00445a8c     LIBCD:sbheap.obj
 0003:00000ac0       __matherr_flag             00445ac0     LIBCD:matherr.obj
 0003:00000bc0       __pow10pos                 00445bc0     LIBCD:constpow.obj
 0003:00000d20       __pow10neg                 00445d20     LIBCD:constpow.obj
 0003:00000e80       ?theApp@@3VCNStimApp@@A    00445e80     CNStimApp.obj
 0003:00000ec8       ?m_pTheStimEngine@CNStimEngine@@0PAV1@A 00445ec8     CNStimEngine.obj
 0003:00000ecc       ?sineTable@CNStimGratingPatch@@0PAMA 00445ecc     CNStimGratingPatch.obj
 0003:00000ed0       ?cosineTable@CNStimGratingPatch@@0PAMA 00445ed0     CNStimGratingPatch.obj
 0003:00000ed4       ?lutInitialized@CNStimGratingPatch@@0_NA 00445ed4     CNStimGratingPatch.obj
 0003:00000ed8       ?helpInfo@@3PAUHelpStruct@@A 00445ed8     CNStimListCmd.obj
 0003:00000f48       ?sineTable@CNStimOIGratingPatch@@0PAMA 00445f48     CNStimOIGratingPatch.obj
 0003:00000f4c       ?cosineTable@CNStimOIGratingPatch@@0PAMA 00445f4c     CNStimOIGratingPatch.obj
 0003:00000f50       ?lutInitialized@CNStimOIGratingPatch@@0_NA 00445f50     CNStimOIGratingPatch.obj
 0003:00000f54       ?m_pStimProfile@CNStimProfile@@0PAV1@A 00445f54     CNStimProfile.obj
 0003:00000f58       ?sineTable@CNStimSMGratingPatch@@0PAMA 00445f58     CNStimSMGratingPatch.obj
 0003:00000f5c       ?cosineTable@CNStimSMGratingPatch@@0PAMA 00445f5c     CNStimSMGratingPatch.obj
 0003:00000f60       ?lutInitialized@CNStimSMGratingPatch@@0_NA 00445f60     CNStimSMGratingPatch.obj
 0003:00000f64       ?txtcnt@@3HA               00445f64     d3d:CDirect3DTexture.obj
 0003:00000f68       ?debug@@3VCGlobalDebug@@A  00445f68     debug:CGlobalDebug.obj
 0003:00001578       ?m_lNumSockets@CTcpIpConnection@@0JA 00446578     tcpip:CTcpIpConnection.obj
 0003:0000157c       ?m_pTheApp@CWinApp@@0PAV1@A 0044657c     ui:CWinApp.obj
 0003:00001580       ?m_bIoInitialized@CLPTPort@@0_NA 00446580     lpt:CLPTPort.obj
 0003:00001584       ___fastflag                00446584     LIBCD:fpinit.obj
 0003:00001588       __adjust_fdiv              00446588     LIBCD:fpinit.obj
 0003:00001590       __aenvptr                  00446590     LIBCD:wincrt0.obj
 0003:00001594       __wenvptr                  00446594     LIBCD:wincrt0.obj
 0003:00001598       ___error_mode              00446598     LIBCD:wincrt0.obj
 0003:000015e0       _errno                     004465e0     LIBCD:crt0dat.obj
 0003:000015e4       __doserrno                 004465e4     LIBCD:crt0dat.obj
 0003:000015e8       __umaskval                 004465e8     LIBCD:crt0dat.obj
 0003:000015ec       __osver                    004465ec     LIBCD:crt0dat.obj
 0003:000015f0       __winver                   004465f0     LIBCD:crt0dat.obj
 0003:000015f4       __winmajor                 004465f4     LIBCD:crt0dat.obj
 0003:000015f8       __winminor                 004465f8     LIBCD:crt0dat.obj
 0003:000015fc       ___argc                    004465fc     LIBCD:crt0dat.obj
 0003:00001600       ___argv                    00446600     LIBCD:crt0dat.obj
 0003:00001604       ___wargv                   00446604     LIBCD:crt0dat.obj
 0003:00001608       __environ                  00446608     LIBCD:crt0dat.obj
 0003:0000160c       ___initenv                 0044660c     LIBCD:crt0dat.obj
 0003:00001610       __wenviron                 00446610     LIBCD:crt0dat.obj
 0003:00001614       ___winitenv                00446614     LIBCD:crt0dat.obj
 0003:00001618       __pgmptr                   00446618     LIBCD:crt0dat.obj
 0003:0000161c       __wpgmptr                  0044661c     LIBCD:crt0dat.obj
 0003:00001620       __exitflag                 00446620     LIBCD:crt0dat.obj
 0003:00001624       __C_Termination_Done       00446624     LIBCD:crt0dat.obj
 0003:00001628       __C_Exit_Done              00446628     LIBCD:crt0dat.obj
 0003:00001630       ?_pCurrentException@@3PAUEHExceptionRecord@@A 00446630     LIBCD:frame.obj
 0003:00001634       ?_pCurrentExContext@@3PAU_CONTEXT@@A 00446634     LIBCD:frame.obj
 0003:00001638       ?__pSETranslator@@3P6AXIPAU_EXCEPTION_POINTERS@@@ZA 00446638     LIBCD:hooks.obj
 0003:0000163c       ?__pTerminate@@3P6AXXZA    0044663c     LIBCD:hooks.obj
 0003:00001660       __cflush                   00446660     LIBCD:_file.obj
 0003:00001668       ___lc_handle               00446668     LIBCD:nlsdata2.obj
 0003:00001680       ___lc_codepage             00446680     LIBCD:nlsdata2.obj
 0003:00001684       ___lc_collate_cp           00446684     LIBCD:nlsdata2.obj
 0003:00001688       __stdbuf                   00446688     LIBCD:_sftbuf.obj
 0003:00001690       __pxcptinfoptrs            00446690     LIBCD:winxfltr.obj
 0003:0000179c       __adbgmsg                  0044679c     LIBCD:crt0msg.obj
 0003:000017a0       __newmode                  004467a0     LIBCD:_newmode.obj
 0003:000017a4       ?_pnhHeap@@3P6AHI@ZA       004467a4     LIBCD:handler.obj
 0003:000017e4       __commode                  004467e4     LIBCD:ncommode.obj
 0003:000017ec       __fmode                    004467ec     LIBCD:txtmode.obj
 0003:000017f0       ___mbcodepage              004467f0     <common>
 0003:00001800       ___mbulinfo                00446800     <common>
 0003:0000180c       ___ismbcodepage            0044680c     <common>
 0003:00001820       __mbcasemap                00446820     <common>
 0003:00001920       __mbctype                  00446920     <common>
 0003:00001a24       ___mblcid                  00446a24     <common>
 0003:00001a28       ___sbh_sizeHeaderList      00446a28     <common>
 0003:00001a2c       ___sbh_indGroupDefer       00446a2c     <common>
 0003:00001a30       ___sbh_pHeaderScan         00446a30     <common>
 0003:00001a34       ___sbh_pHeaderDefer        00446a34     <common>
 0003:00001a38       ___sbh_cntHeaderList       00446a38     <common>
 0003:00001a3c       ___sbh_pHeaderList         00446a3c     <common>
 0003:00001a40       __crtheap                  00446a40     <common>
 0003:00001a60       ___pioinfo                 00446a60     <common>
 0003:00001b60       __nhandle                  00446b60     <common>
 0003:00001b64       ___piob                    00446b64     <common>
 0003:00001b80       __bufin                    00446b80     <common>
 0003:00002b80       __nstream                  00447b80     <common>
 0003:00002b84       ___env_initialized         00447b84     <common>
 0003:00002b88       ___mbctype_initialized     00447b88     <common>
 0003:00002b8c       ___onexitend               00447b8c     <common>
 0003:00002b90       ___onexitbegin             00447b90     <common>
 0003:00002b94       __pfnDumpClient            00447b94     <common>
 0003:00002b98       __pfnReportHook            00447b98     <common>
 0003:00002b9c       __acmdln                   00447b9c     <common>
 0004:00000000       __IMPORT_DESCRIPTOR_KERNEL32 00448000     kernel32:KERNEL32.dll
 0004:00000014       __IMPORT_DESCRIPTOR_USER32 00448014     user32:USER32.dll
 0004:00000028       __IMPORT_DESCRIPTOR_WS2_32 00448028     ws2_32:WS2_32.dll
 0004:0000003c       __IMPORT_DESCRIPTOR_d3d9   0044803c     d3d9:d3d9.dll
 0004:00000050       __IMPORT_DESCRIPTOR_ole32  00448050     ole32:ole32.dll
 0004:00000064       __IMPORT_DESCRIPTOR_WINIO  00448064     WinIo:WINIO.dll
 0004:00000078       __NULL_IMPORT_DESCRIPTOR   00448078     kernel32:KERNEL32.dll
 0004:000002a0       __imp__GetCurrentDirectoryA@8 004482a0     kernel32:KERNEL32.dll
 0004:000002a4       __imp__WritePrivateProfileStringA@16 004482a4     kernel32:KERNEL32.dll
 0004:000002a8       __imp__GetPrivateProfileStringA@24 004482a8     kernel32:KERNEL32.dll
 0004:000002ac       __imp__InterlockedIncrement@4 004482ac     kernel32:KERNEL32.dll
 0004:000002b0       __imp__InterlockedDecrement@4 004482b0     kernel32:KERNEL32.dll
 0004:000002b4       __imp__OutputDebugStringA@4 004482b4     kernel32:KERNEL32.dll
 0004:000002b8       __imp__CreateEventA@16     004482b8     kernel32:KERNEL32.dll
 0004:000002bc       __imp__CloseHandle@4       004482bc     kernel32:KERNEL32.dll
 0004:000002c0       __imp__WaitForSingleObject@8 004482c0     kernel32:KERNEL32.dll
 0004:000002c4       __imp__SetEvent@4          004482c4     kernel32:KERNEL32.dll
 0004:000002c8       __imp__DebugBreak@0        004482c8     kernel32:KERNEL32.dll
 0004:000002cc       __imp__QueryPerformanceCounter@4 004482cc     kernel32:KERNEL32.dll
 0004:000002d0       __imp__CreateDirectoryA@8  004482d0     kernel32:KERNEL32.dll
 0004:000002d4       __imp__QueryPerformanceFrequency@4 004482d4     kernel32:KERNEL32.dll
 0004:000002d8       __imp__SetThreadPriority@8 004482d8     kernel32:KERNEL32.dll
 0004:000002dc       __imp__GetCurrentThread@0  004482dc     kernel32:KERNEL32.dll
 0004:000002e0       __imp__SetEndOfFile@4      004482e0     kernel32:KERNEL32.dll
 0004:000002e4       __imp__GetOEMCP@0          004482e4     kernel32:KERNEL32.dll
 0004:000002e8       __imp__GetACP@0            004482e8     kernel32:KERNEL32.dll
 0004:000002ec       __imp__GetCPInfo@8         004482ec     kernel32:KERNEL32.dll
 0004:000002f0       __imp__CreateFileA@28      004482f0     kernel32:KERNEL32.dll
 0004:000002f4       __imp__SetStdHandle@8      004482f4     kernel32:KERNEL32.dll
 0004:000002f8       __imp__IsBadCodePtr@4      004482f8     kernel32:KERNEL32.dll
 0004:000002fc       __imp__SetUnhandledExceptionFilter@4 004482fc     kernel32:KERNEL32.dll
 0004:00000300       __imp__GetStringTypeW@16   00448300     kernel32:KERNEL32.dll
 0004:00000304       __imp__GetStringTypeA@20   00448304     kernel32:KERNEL32.dll
 0004:00000308       __imp__SetFilePointer@16   00448308     kernel32:KERNEL32.dll
 0004:0000030c       __imp__VirtualAlloc@16     0044830c     kernel32:KERNEL32.dll
 0004:00000310       __imp__HeapReAlloc@16      00448310     kernel32:KERNEL32.dll
 0004:00000314       __imp__HeapAlloc@12        00448314     kernel32:KERNEL32.dll
 0004:00000318       __imp__FlushFileBuffers@4  00448318     kernel32:KERNEL32.dll
 0004:0000031c       __imp__VirtualFree@12      0044831c     kernel32:KERNEL32.dll
 0004:00000320       __imp__HeapFree@12         00448320     kernel32:KERNEL32.dll
 0004:00000324       __imp__HeapCreate@12       00448324     kernel32:KERNEL32.dll
 0004:00000328       __imp__HeapDestroy@4       00448328     kernel32:KERNEL32.dll
 0004:0000032c       __imp__GetFileType@4       0044832c     kernel32:KERNEL32.dll
 0004:00000330       __imp__SetHandleCount@4    00448330     kernel32:KERNEL32.dll
 0004:00000334       __imp__GetEnvironmentStringsW@0 00448334     kernel32:KERNEL32.dll
 0004:00000338       __imp__GetEnvironmentStrings@0 00448338     kernel32:KERNEL32.dll
 0004:0000033c       __imp__FreeEnvironmentStringsW@4 0044833c     kernel32:KERNEL32.dll
 0004:00000340       __imp__FreeEnvironmentStringsA@4 00448340     kernel32:KERNEL32.dll
 0004:00000344       __imp__UnhandledExceptionFilter@4 00448344     kernel32:KERNEL32.dll
 0004:00000348       __imp__RaiseException@16   00448348     kernel32:KERNEL32.dll
 0004:0000034c       __imp__ExitProcess@4       0044834c     kernel32:KERNEL32.dll
 0004:00000350       __imp__CreateMutexA@12     00448350     kernel32:KERNEL32.dll
 0004:00000354       __imp__CreateThread@24     00448354     kernel32:KERNEL32.dll
 0004:00000358       __imp__ReleaseMutex@4      00448358     kernel32:KERNEL32.dll
 0004:0000035c       __imp__LockResource@4      0044835c     kernel32:KERNEL32.dll
 0004:00000360       __imp__LoadResource@8      00448360     kernel32:KERNEL32.dll
 0004:00000364       __imp__FindResourceA@12    00448364     kernel32:KERNEL32.dll
 0004:00000368       __imp__RtlUnwind@16        00448368     kernel32:KERNEL32.dll
 0004:0000036c       __imp__GetModuleFileNameA@12 0044836c     kernel32:KERNEL32.dll
 0004:00000370       __imp__GetModuleHandleA@4  00448370     kernel32:KERNEL32.dll
 0004:00000374       __imp__GetStartupInfoA@4   00448374     kernel32:KERNEL32.dll
 0004:00000378       __imp__GetCommandLineA@0   00448378     kernel32:KERNEL32.dll
 0004:0000037c       __imp__GetVersion@0        0044837c     kernel32:KERNEL32.dll
 0004:00000380       __imp__GetLastError@0      00448380     kernel32:KERNEL32.dll
 0004:00000384       __imp__GetStdHandle@4      00448384     kernel32:KERNEL32.dll
 0004:00000388       __imp__WriteFile@20        00448388     kernel32:KERNEL32.dll
 0004:0000038c       __imp__GetProcAddress@8    0044838c     kernel32:KERNEL32.dll
 0004:00000390       __imp__LoadLibraryA@4      00448390     kernel32:KERNEL32.dll
 0004:00000394       __imp__IsBadWritePtr@8     00448394     kernel32:KERNEL32.dll
 0004:00000398       __imp__IsBadReadPtr@8      00448398     kernel32:KERNEL32.dll
 0004:0000039c       __imp__HeapValidate@12     0044839c     kernel32:KERNEL32.dll
 0004:000003a0       __imp__TerminateProcess@8  004483a0     kernel32:KERNEL32.dll
 0004:000003a4       __imp__GetCurrentProcess@0 004483a4     kernel32:KERNEL32.dll
 0004:000003a8       __imp__SetConsoleCtrlHandler@8 004483a8     kernel32:KERNEL32.dll
 0004:000003ac       __imp__WideCharToMultiByte@32 004483ac     kernel32:KERNEL32.dll
 0004:000003b0       __imp__MultiByteToWideChar@24 004483b0     kernel32:KERNEL32.dll
 0004:000003b4       __imp__LCMapStringA@24     004483b4     kernel32:KERNEL32.dll
 0004:000003b8       __imp__LCMapStringW@24     004483b8     kernel32:KERNEL32.dll
 0004:000003bc       __imp__ReadFile@20         004483bc     kernel32:KERNEL32.dll
 0004:000003c0       \177KERNEL32_NULL_THUNK_DATA 004483c0     kernel32:KERNEL32.dll
 0004:000003c4       __imp__LoadMenuA@8         004483c4     user32:USER32.dll
 0004:000003c8       __imp__CreateWindowExA@48  004483c8     user32:USER32.dll
 0004:000003cc       __imp__DefWindowProcA@16   004483cc     user32:USER32.dll
 0004:000003d0       __imp__SetCursor@4         004483d0     user32:USER32.dll
 0004:000003d4       __imp__LoadCursorA@8       004483d4     user32:USER32.dll
 0004:000003d8       __imp__LoadBitmapA@8       004483d8     user32:USER32.dll
 0004:000003dc       __imp__GetDlgItem@8        004483dc     user32:USER32.dll
 0004:000003e0       __imp__EndDialog@8         004483e0     user32:USER32.dll
 0004:000003e4       __imp__DialogBoxIndirectParamA@20 004483e4     user32:USER32.dll
 0004:000003e8       __imp__CreateDialogIndirectParamA@20 004483e8     user32:USER32.dll
 0004:000003ec       __imp__InvalidateRect@12   004483ec     user32:USER32.dll
 0004:000003f0       __imp__SendMessageA@16     004483f0     user32:USER32.dll
 0004:000003f4       __imp__SetFocus@4          004483f4     user32:USER32.dll
 0004:000003f8       __imp__SetWindowTextA@8    004483f8     user32:USER32.dll
 0004:000003fc       __imp__UpdateWindow@4      004483fc     user32:USER32.dll
 0004:00000400       __imp__EnableWindow@8      00448400     user32:USER32.dll
 0004:00000404       __imp__MoveWindow@24       00448404     user32:USER32.dll
 0004:00000408       __imp__ShowWindow@8        00448408     user32:USER32.dll
 0004:0000040c       __imp__GetWindowRect@8     0044840c     user32:USER32.dll
 0004:00000410       __imp__GetClientRect@8     00448410     user32:USER32.dll
 0004:00000414       __imp__MessageBeep@4       00448414     user32:USER32.dll
 0004:00000418       __imp__ShowCursor@4        00448418     user32:USER32.dll
 0004:0000041c       __imp__PeekMessageA@20     0044841c     user32:USER32.dll
 0004:00000420       __imp__TranslateMessage@4  00448420     user32:USER32.dll
 0004:00000424       __imp__DispatchMessageA@4  00448424     user32:USER32.dll
 0004:00000428       __imp__MessageBoxA@16      00448428     user32:USER32.dll
 0004:0000042c       __imp__RegisterClassA@4    0044842c     user32:USER32.dll
 0004:00000430       __imp__PostQuitMessage@4   00448430     user32:USER32.dll
 0004:00000434       __imp__GetMessageA@16      00448434     user32:USER32.dll
 0004:00000438       __imp__LoadIconA@8         00448438     user32:USER32.dll
 0004:0000043c       __imp__DestroyWindow@4     0044843c     user32:USER32.dll
 0004:00000440       \177USER32_NULL_THUNK_DATA 00448440     user32:USER32.dll
 0004:00000444       __imp__GetPortVal@12       00448444     WinIo:WINIO.dll
 0004:00000448       __imp__SetPortVal@12       00448448     WinIo:WINIO.dll
 0004:0000044c       __imp__InstallWinIoDriver@8 0044844c     WinIo:WINIO.dll
 0004:00000450       __imp__InitializeWinIo@0   00448450     WinIo:WINIO.dll
 0004:00000454       __imp__GetPhysLong@8       00448454     WinIo:WINIO.dll
 0004:00000458       \177WINIO_NULL_THUNK_DATA  00448458     WinIo:WINIO.dll
 0004:0000045c       __imp__socket@12           0044845c     ws2_32:WS2_32.dll
 0004:00000460       __imp__WSACleanup@0        00448460     ws2_32:WS2_32.dll
 0004:00000464       __imp__WSAStartup@8        00448464     ws2_32:WS2_32.dll
 0004:00000468       __imp__accept@12           00448468     ws2_32:WS2_32.dll
 0004:0000046c       __imp__listen@8            0044846c     ws2_32:WS2_32.dll
 0004:00000470       __imp__bind@12             00448470     ws2_32:WS2_32.dll
 0004:00000474       __imp__htons@4             00448474     ws2_32:WS2_32.dll
 0004:00000478       __imp__gethostbyname@4     00448478     ws2_32:WS2_32.dll
 0004:0000047c       __imp__inet_addr@4         0044847c     ws2_32:WS2_32.dll
 0004:00000480       __imp__closesocket@4       00448480     ws2_32:WS2_32.dll
 0004:00000484       __imp__recv@16             00448484     ws2_32:WS2_32.dll
 0004:00000488       __imp__shutdown@8          00448488     ws2_32:WS2_32.dll
 0004:0000048c       __imp__ioctlsocket@12      0044848c     ws2_32:WS2_32.dll
 0004:00000490       __imp____WSAFDIsSet@8      00448490     ws2_32:WS2_32.dll
 0004:00000494       __imp__send@16             00448494     ws2_32:WS2_32.dll
 0004:00000498       __imp__select@20           00448498     ws2_32:WS2_32.dll
 0004:0000049c       __imp__connect@12          0044849c     ws2_32:WS2_32.dll
 0004:000004a0       \177WS2_32_NULL_THUNK_DATA 004484a0     ws2_32:WS2_32.dll
 0004:000004a4       __imp__Direct3DCreate9@4   004484a4     d3d9:d3d9.dll
 0004:000004a8       \177d3d9_NULL_THUNK_DATA   004484a8     d3d9:d3d9.dll
 0004:000004ac       __imp__CoInitialize@4      004484ac     ole32:ole32.dll
 0004:000004b0       \177ole32_NULL_THUNK_DATA  004484b0     ole32:ole32.dll

 entry point at        0001:0002b630

 Static symbols

 0001:000003c0       _$E21                      004013c0 f   CNStimApp.obj
 0001:00000400       _$E18                      00401400 f   CNStimApp.obj
 0001:00000440       _$E20                      00401440 f   CNStimApp.obj
 0001:00000480       _$E19                      00401480 f   CNStimApp.obj
 0001:00023d80       _$E12                      00424d80 f   debug:CGlobalDebug.obj
 0001:00023dc0       _$E9                       00424dc0 f   debug:CGlobalDebug.obj
 0001:00023e00       _$E11                      00424e00 f   debug:CGlobalDebug.obj
 0001:00023e40       _$E10                      00424e40 f   debug:CGlobalDebug.obj
 0001:0003c83c       chk_null                   0043d83c f   LIBCD:stricmp.obj
 0001:0003c86e       done                       0043d86e f   LIBCD:stricmp.obj
 0001:0003c873       notclocale                 0043d873 f   LIBCD:stricmp.obj
 0001:0003c87c       chk_null2                  0043d87c f   LIBCD:stricmp.obj
 0001:0003c8a7       done2                      0043d8a7 f   LIBCD:stricmp.obj
 0001:0003c8a7       doret                      0043d8a7 f   LIBCD:stricmp.obj
 0001:0003af80       _getSystemCP               0043bf80 f   LIBCD:mbctype.obj
 0001:0003afe0       _CPtoLCID                  0043bfe0 f   LIBCD:mbctype.obj
 0001:0003b060       _setSBCS                   0043c060 f   LIBCD:mbctype.obj
 0001:0003b0e0       _setSBUpLow                0043c0e0 f   LIBCD:mbctype.obj
 0001:0003ac10       _x_ismbbtype               0043bc10 f   LIBCD:ismbbyte.obj
 0001:00038f90       LeadUp1                    00439f90 f   LIBCD:memmove.obj
 0001:00038fbc       LeadUp2                    00439fbc f   LIBCD:memmove.obj
 0001:00038fe0       LeadUp3                    00439fe0 f   LIBCD:memmove.obj
 0001:0003905f       UnwindUp0                  0043a05f f   LIBCD:memmove.obj
 0001:0003904c       UnwindUp1                  0043a04c f   LIBCD:memmove.obj
 0001:00039044       UnwindUp2                  0043a044 f   LIBCD:memmove.obj
 0001:0003903c       UnwindUp3                  0043a03c f   LIBCD:memmove.obj
 0001:00039034       UnwindUp4                  0043a034 f   LIBCD:memmove.obj
 0001:0003902c       UnwindUp5                  0043a02c f   LIBCD:memmove.obj
 0001:00039024       UnwindUp6                  0043a024 f   LIBCD:memmove.obj
 0001:0003901c       UnwindUp7                  0043a01c f   LIBCD:memmove.obj
 0001:00039078       TrailUp0                   0043a078 f   LIBCD:memmove.obj
 0001:00039080       TrailUp1                   0043a080 f   LIBCD:memmove.obj
 0001:0003908c       TrailUp2                   0043a08c f   LIBCD:memmove.obj
 0001:000390a0       TrailUp3                   0043a0a0 f   LIBCD:memmove.obj
 0001:00039118       LeadDown1                  0043a118 f   LIBCD:memmove.obj
 0001:00039138       LeadDown2                  0043a138 f   LIBCD:memmove.obj
 0001:00039160       LeadDown3                  0043a160 f   LIBCD:memmove.obj
 0001:000391b4       UnwindDown7                0043a1b4 f   LIBCD:memmove.obj
 0001:000391bc       UnwindDown6                0043a1bc f   LIBCD:memmove.obj
 0001:000391c4       UnwindDown5                0043a1c4 f   LIBCD:memmove.obj
 0001:000391cc       UnwindDown4                0043a1cc f   LIBCD:memmove.obj
 0001:000391d4       UnwindDown3                0043a1d4 f   LIBCD:memmove.obj
 0001:000391dc       UnwindDown2                0043a1dc f   LIBCD:memmove.obj
 0001:000391e4       UnwindDown1                0043a1e4 f   LIBCD:memmove.obj
 0001:000391f7       UnwindDown0                0043a1f7 f   LIBCD:memmove.obj
 0001:00039210       TrailDown0                 0043a210 f   LIBCD:memmove.obj
 0001:00039218       TrailDown1                 0043a218 f   LIBCD:memmove.obj
 0001:00039228       TrailDown2                 0043a228 f   LIBCD:memmove.obj
 0001:0003923c       TrailDown3                 0043a23c f   LIBCD:memmove.obj
 0001:00038f40       CopyUp                     00439f40 f   LIBCD:memmove.obj
 0001:00038f5c       CopyLeadUp                 00439f5c f   LIBCD:memmove.obj
 0001:00038f74       ByteCopyUp                 00439f74 f   LIBCD:memmove.obj
 0001:00038f7c       CopyUnwindUp               00439f7c f   LIBCD:memmove.obj
 0001:000390b8       CopyDown                   0043a0b8 f   LIBCD:memmove.obj
 0001:000390e0       CopyUnwindDown             0043a0e0 f   LIBCD:memmove.obj
 0001:000390ec       CopyLeadDown               0043a0ec f   LIBCD:memmove.obj
 0001:00039104       ByteCopyDown               0043a104 f   LIBCD:memmove.obj
 0001:000380c0       __abstract_cw              004390c0 f   LIBCD:ieee87.obj
 0001:00038240       __hw_cw                    00439240 f   LIBCD:ieee87.obj
 0001:000383a0       __abstract_sw              004393a0 f   LIBCD:ieee87.obj
 0001:00037d91       L1                         00438d91 f   LIBCD:ullrem.obj
 0001:00037d9f       L3                         00438d9f f   LIBCD:ullrem.obj
 0001:00037dca       L4                         00438dca f   LIBCD:ullrem.obj
 0001:00037dd2       L5                         00438dd2 f   LIBCD:ullrem.obj
 0001:00037de1       L2                         00438de1 f   LIBCD:ullrem.obj
 0001:00037d22       L1                         00438d22 f   LIBCD:ulldiv.obj
 0001:00037d30       L3                         00438d30 f   LIBCD:ulldiv.obj
 0001:00037d5e       L4                         00438d5e f   LIBCD:ulldiv.obj
 0001:00037d5f       L5                         00438d5f f   LIBCD:ulldiv.obj
 0001:00037d63       L2                         00438d63 f   LIBCD:ulldiv.obj
 0001:00034910       _parse_cmdline             00435910 f   LIBCD:stdargv.obj
 0001:000345c0       _xcptlookup                004355c0 f   LIBCD:winxfltr.obj
 0001:00033fa0       __get_fname                00434fa0 f   LIBCD:fpexcept.obj
 0001:00032280       _strncnt                   00433280 f   LIBCD:a_map.obj
 0001:00031744       src_misaligned             00432744 f   LIBCD:strncpy.obj
 0001:00031760       tail_loop_start            00432760 f   LIBCD:strncpy.obj
 0001:00031765       copy_tail_loop             00432765 f   LIBCD:strncpy.obj
 0001:00031772       fill_tail_end1             00432772 f   LIBCD:strncpy.obj
 0001:0003177a       align_dest                 0043277a f   LIBCD:strncpy.obj
 0001:00031782       dest_align_loop            00432782 f   LIBCD:strncpy.obj
 0001:00031794       dest_align_loop_end        00432794 f   LIBCD:strncpy.obj
 0001:0003179b       finish_loop                0043279b f   LIBCD:strncpy.obj
 0001:0003179e       fill_tail_zero_bytes       0043279e f   LIBCD:strncpy.obj
 0001:000317a3       finish                     004327a3 f   LIBCD:strncpy.obj
 0001:000317a9       main_loop                  004327a9 f   LIBCD:strncpy.obj
 0001:000317b1       main_loop_entrance         004327b1 f   LIBCD:strncpy.obj
 0001:000317e7       byte_2                     004327e7 f   LIBCD:strncpy.obj
 0001:000317f1       byte_1                     004327f1 f   LIBCD:strncpy.obj
 0001:000317fb       byte_0                     004327fb f   LIBCD:strncpy.obj
 0001:000317ff       fill_with_EOS_dwords       004327ff f   LIBCD:strncpy.obj
 0001:00031807       fill_dwords_with_EOS       00432807 f   LIBCD:strncpy.obj
 0001:00031809       fill_with_EOS_loop         00432809 f   LIBCD:strncpy.obj
 0001:00031811       fill_tail                  00432811 f   LIBCD:strncpy.obj
 0001:00031816       fill_tail_end              00432816 f   LIBCD:strncpy.obj
 0001:0003160b       front_misaligned           0043260b f   LIBCD:strncat.obj
 0001:0003161a       find_end_of_front_string_loop 0043261a f   LIBCD:strncat.obj
 0001:0003164b       start_byte_3               0043264b f   LIBCD:strncat.obj
 0001:0003164e       start_byte_2               0043264e f   LIBCD:strncat.obj
 0001:00031653       start_byte_1               00432653 f   LIBCD:strncat.obj
 0001:00031658       start_byte_0               00432658 f   LIBCD:strncat.obj
 0001:0003165b       copy_start                 0043265b f   LIBCD:strncat.obj
 0001:00031670       back_misaligned            00432670 f   LIBCD:strncat.obj
 0001:0003168c       tail_loop_start            0043268c f   LIBCD:strncat.obj
 0001:00031693       tail_loop                  00432693 f   LIBCD:strncat.obj
 0001:000316a0       empty_counter              004326a0 f   LIBCD:strncat.obj
 0001:000316a2       finish1                    004326a2 f   LIBCD:strncat.obj
 0001:000316a4       finish                     004326a4 f   LIBCD:strncat.obj
 0001:000316aa       byte_0                     004326aa f   LIBCD:strncat.obj
 0001:000316b4       main_loop                  004326b4 f   LIBCD:strncat.obj
 0001:000316bc       main_loop_entrance         004326bc f   LIBCD:strncat.obj
 0001:000316ee       byte_3                     004326ee f   LIBCD:strncat.obj
 0001:000316f8       byte_2                     004326f8 f   LIBCD:strncat.obj
 0001:00031708       byte_1                     00432708 f   LIBCD:strncat.obj
 0001:00031350       _xtoa                      00432350 f   LIBCD:xtoa.obj
 0001:000314d0       _x64toa@20                 004324d0 f   LIBCD:xtoa.obj
 0001:00030fb0       _ctrlevent_capture@4       00431fb0 f   LIBCD:winsig.obj
 0001:000311e0       _siglookup                 004321e0 f   LIBCD:winsig.obj
 0001:000300f0       ?FindHandler@@YAXPAUEHExceptionRecord@@PAUEHRegistrationNode@@PAU_CONTEXT@@PAXPBU_s_FuncInfo@@EH1@Z 004310f0 f   LIBCD:frame.obj
 0001:00030390       ?FindHandlerForForeignException@@YAXPAUEHExceptionRecord@@PAUEHRegistrationNode@@PAU_CONTEXT@@PAXPBU_s_FuncInfo@@HH1@Z 00431390 f   LIBCD:frame.obj
 0001:000304b0       ?TypeMatch@@YAHPBU_s_HandlerType@@PBU_s_CatchableType@@PBU_s_ThrowInfo@@@Z 004314b0 f   LIBCD:frame.obj
 0001:00030670       ?FrameUnwindFilter@@YAHPAU_EXCEPTION_POINTERS@@@Z 00431670 f   LIBCD:frame.obj
 0001:000306a0       ?CatchIt@@YAXPAUEHExceptionRecord@@PAUEHRegistrationNode@@PAU_CONTEXT@@PAXPBU_s_FuncInfo@@PBU_s_HandlerType@@PBU_s_CatchableType@@PBU_s_TryBlockMapEntry@@H1E@Z 004316a0 f   LIBCD:frame.obj
 0001:00030760       ?CallCatchBlock@@YAPAXPAUEHExceptionRecord@@PAUEHRegistrationNode@@PAU_CONTEXT@@PBU_s_FuncInfo@@PAXHK@Z 00431760 f   LIBCD:frame.obj
 0001:000308b0       ?ExFilterRethrow@@YAHPAU_EXCEPTION_POINTERS@@@Z 004318b0 f   LIBCD:frame.obj
 0001:00030900       ?BuildCatchObject@@YAXPAUEHExceptionRecord@@PAUEHRegistrationNode@@PBU_s_HandlerType@@PBU_s_CatchableType@@@Z 00431900 f   LIBCD:frame.obj
 0001:00030c10       ?AdjustPointer@@YAPAXPAXABUPMD@@@Z 00431c10 f   LIBCD:frame.obj
 0001:0002fef0       _doexit                    00430ef0 f   LIBCD:crt0dat.obj
 0001:0002ffd0       __initterm                 00430fd0 f   LIBCD:crt0dat.obj
 0001:0002fc60       __cftoe_g                  00430c60 f   LIBCD:cvt.obj
 0001:0002fca0       __cftof_g                  00430ca0 f   LIBCD:cvt.obj
 0001:0002fd30       __shift                    00430d30 f   LIBCD:cvt.obj
 0001:0002f509       hard                       00430509 f   LIBCD:llmul.obj
 0001:0002f2c0       _write_char                004302c0 f   LIBCD:output.obj
 0001:0002f340       _write_multi_char          00430340 f   LIBCD:output.obj
 0001:0002f380       _write_string              00430380 f   LIBCD:output.obj
 0001:0002f3d0       _get_int_arg               004303d0 f   LIBCD:output.obj
 0001:0002f3f0       _get_int64_arg             004303f0 f   LIBCD:output.obj
 0001:0002f410       _get_short_arg             00430410 f   LIBCD:output.obj
 0001:0002c950       _realloc_help              0042d950 f   LIBCD:dbgheap.obj
 0001:0002d510       _CheckBytes                0042e510 f   LIBCD:dbgheap.obj
 0001:0002e0a0       __printMemBlockData        0042f0a0 f   LIBCD:dbgheap.obj
 0001:0002c170       _CrtMessageWindow          0042d170 f   LIBCD:dbgrpt.obj
 0001:0002bb10       dodwords                   0042cb10 f   LIBCD:strcmp.obj
 0001:0002bb40       doneeq                     0042cb40 f   LIBCD:strcmp.obj
 0001:0002bb44       donene                     0042cb44 f   LIBCD:strcmp.obj
 0001:0002bb4c       dopartial                  0042cb4c f   LIBCD:strcmp.obj
 0001:0002bb68       doword                     0042cb68 f   LIBCD:strcmp.obj
 0001:0002b970       _flsall                    0042c970 f   LIBCD:fflush.obj
 0001:0002b7c0       _fast_error_exit           0042c7c0 f   LIBCD:wincrt0.obj
 0001:0002b020       LeadUp1                    0042c020 f   LIBCD:memcpy.obj
 0001:0002b04c       LeadUp2                    0042c04c f   LIBCD:memcpy.obj
 0001:0002b070       LeadUp3                    0042c070 f   LIBCD:memcpy.obj
 0001:0002b0ef       UnwindUp0                  0042c0ef f   LIBCD:memcpy.obj
 0001:0002b0dc       UnwindUp1                  0042c0dc f   LIBCD:memcpy.obj
 0001:0002b0d4       UnwindUp2                  0042c0d4 f   LIBCD:memcpy.obj
 0001:0002b0cc       UnwindUp3                  0042c0cc f   LIBCD:memcpy.obj
 0001:0002b0c4       UnwindUp4                  0042c0c4 f   LIBCD:memcpy.obj
 0001:0002b0bc       UnwindUp5                  0042c0bc f   LIBCD:memcpy.obj
 0001:0002b0b4       UnwindUp6                  0042c0b4 f   LIBCD:memcpy.obj
 0001:0002b0ac       UnwindUp7                  0042c0ac f   LIBCD:memcpy.obj
 0001:0002b108       TrailUp0                   0042c108 f   LIBCD:memcpy.obj
 0001:0002b110       TrailUp1                   0042c110 f   LIBCD:memcpy.obj
 0001:0002b11c       TrailUp2                   0042c11c f   LIBCD:memcpy.obj
 0001:0002b130       TrailUp3                   0042c130 f   LIBCD:memcpy.obj
 0001:0002b1a8       LeadDown1                  0042c1a8 f   LIBCD:memcpy.obj
 0001:0002b1c8       LeadDown2                  0042c1c8 f   LIBCD:memcpy.obj
 0001:0002b1f0       LeadDown3                  0042c1f0 f   LIBCD:memcpy.obj
 0001:0002b244       UnwindDown7                0042c244 f   LIBCD:memcpy.obj
 0001:0002b24c       UnwindDown6                0042c24c f   LIBCD:memcpy.obj
 0001:0002b254       UnwindDown5                0042c254 f   LIBCD:memcpy.obj
 0001:0002b25c       UnwindDown4                0042c25c f   LIBCD:memcpy.obj
 0001:0002b264       UnwindDown3                0042c264 f   LIBCD:memcpy.obj
 0001:0002b26c       UnwindDown2                0042c26c f   LIBCD:memcpy.obj
 0001:0002b274       UnwindDown1                0042c274 f   LIBCD:memcpy.obj
 0001:0002b287       UnwindDown0                0042c287 f   LIBCD:memcpy.obj
 0001:0002b2a0       TrailDown0                 0042c2a0 f   LIBCD:memcpy.obj
 0001:0002b2a8       TrailDown1                 0042c2a8 f   LIBCD:memcpy.obj
 0001:0002b2b8       TrailDown2                 0042c2b8 f   LIBCD:memcpy.obj
 0001:0002b2cc       TrailDown3                 0042c2cc f   LIBCD:memcpy.obj
 0001:0002afd0       CopyUp                     0042bfd0 f   LIBCD:memcpy.obj
 0001:0002afec       CopyLeadUp                 0042bfec f   LIBCD:memcpy.obj
 0001:0002b004       ByteCopyUp                 0042c004 f   LIBCD:memcpy.obj
 0001:0002b00c       CopyUnwindUp               0042c00c f   LIBCD:memcpy.obj
 0001:0002b148       CopyDown                   0042c148 f   LIBCD:memcpy.obj
 0001:0002b170       CopyUnwindDown             0042c170 f   LIBCD:memcpy.obj
 0001:0002b17c       CopyLeadDown               0042c17c f   LIBCD:memcpy.obj
 0001:0002b194       ByteCopyDown               0042c194 f   LIBCD:memcpy.obj
 0001:0002af21       L1                         0042bf21 f   LIBCD:lldiv.obj
 0001:0002af3d       L2                         0042bf3d f   LIBCD:lldiv.obj
 0001:0002af59       L3                         0042bf59 f   LIBCD:lldiv.obj
 0001:0002af67       L5                         0042bf67 f   LIBCD:lldiv.obj
 0001:0002af95       L6                         0042bf95 f   LIBCD:lldiv.obj
 0001:0002af96       L7                         0042bf96 f   LIBCD:lldiv.obj
 0001:0002af9a       L4                         0042bf9a f   LIBCD:lldiv.obj
 0001:0002afa4       L8                         0042bfa4 f   LIBCD:lldiv.obj
 0001:0002aed0       _$$$00001                  0042bed0 f   LIBCD:chkstk.obj
 0001:0002aedc       probepages                 0042bedc f   LIBCD:chkstk.obj
 0001:0002aef0       lastpage                   0042bef0 f   LIBCD:chkstk.obj
 0001:0002ade3       adjust_loop                0042bde3 f   LIBCD:memset.obj
 0001:0002ade9       dwords                     0042bde9 f   LIBCD:memset.obj
 0001:0002ae03       main_loop_tail             0042be03 f   LIBCD:memset.obj
 0001:0002ae07       tail                       0042be07 f   LIBCD:memset.obj
 0001:0002ae0d       finish                     0042be0d f   LIBCD:memset.obj
 0001:0002ae13       toend                      0042be13 f   LIBCD:memset.obj
 0001:0002a440       ?ArrayUnwindFilter@@YAHPAU_EXCEPTION_POINTERS@@@Z 0042b440 f   LIBCD:ehvecdtr.obj
 0001:0002a15c       str_misaligned             0042b15c f   LIBCD:strlen.obj
 0001:0002a170       main_loop                  0042b170 f   LIBCD:strlen.obj
 0001:0002a1a3       byte_3                     0042b1a3 f   LIBCD:strlen.obj
 0001:0002a1ad       byte_2                     0042b1ad f   LIBCD:strlen.obj
 0001:0002a1b7       byte_1                     0042b1b7 f   LIBCD:strlen.obj
 0001:0002a1c1       byte_0                     0042b1c1 f   LIBCD:strlen.obj
 0001:00029d3d       main_loop                  0042ad3d f   LIBCD:memcmp.obj
 0001:00029d5a       done                       0042ad5a f   LIBCD:memcmp.obj
 0001:00029d5c       retnull                    0042ad5c f   LIBCD:memcmp.obj
 0001:00029d5d       dwords                     0042ad5d f   LIBCD:memcmp.obj
 0001:00029d85       difference_in_tail         0042ad85 f   LIBCD:memcmp.obj
 0001:00029d8a       not_equal                  0042ad8a f   LIBCD:memcmp.obj
 0001:00029d92       tail_loop_start            0042ad92 f   LIBCD:memcmp.obj
 0001:00029db9       tail_done                  0042adb9 f   LIBCD:memcmp.obj
 0001:00029c38       _gu_return                 0042ac38 f   LIBCD:exsup.obj
 0001:00029c40       __unwind_handler           0042ac40 f   LIBCD:exsup.obj
 0001:000299f0       ?CatchGuardHandler@@YA?AW4_EXCEPTION_DISPOSITION@@PAUEHExceptionRecord@@PAUCatchGuardRN@@PAX2@Z 0042a9f0 f   LIBCD:trnsctrl.obj
 0001:00029b00       ?TranslatorGuardHandler@@YA?AW4_EXCEPTION_DISPOSITION@@PAUEHExceptionRecord@@PAUTranslatorGuardRN@@PAX2@Z 0042ab00 f   LIBCD:trnsctrl.obj
 0001:000290dd       dest_misaligned            0042a0dd f   LIBCD:strcat.obj
 0001:000290ec       find_end_of_dest_string_loop 0042a0ec f   LIBCD:strcat.obj
 0001:0002911f       start_byte_3               0042a11f f   LIBCD:strcat.obj
 0001:00029124       start_byte_2               0042a124 f   LIBCD:strcat.obj
 0001:00029129       start_byte_1               0042a129 f   LIBCD:strcat.obj
 0001:0002912e       start_byte_0               0042a12e f   LIBCD:strcat.obj
 0001:0002913d       src_misaligned             0042a13d f   LIBCD:strcat.obj
 0001:00029151       main_loop                  0042a151 f   LIBCD:strcat.obj
 0001:00029156       main_loop_entrance         0042a156 f   LIBCD:strcat.obj
 0001:0002918a       byte_3                     0042a18a f   LIBCD:strcat.obj
 0001:00029192       byte_2                     0042a192 f   LIBCD:strcat.obj
 0001:0002919f       byte_1                     0042a19f f   LIBCD:strcat.obj
 0001:000291a8       byte_0                     0042a1a8 f   LIBCD:strcat.obj
 0001:00029131       copy_start                 0042a131 f   LIBCD:strcat.obj

FIXUPS: 2a6d7 d fffffef3 5 a fffffdb4 85 69 33 8c 34 fffffd31 2a 45 4b
FIXUPS: 2a24d 1f ffffff66 e3e e 1e 20 16 15 16 14 16 14 19 19 a 1c fffffb01
FIXUPS: 2a8d8 60 33 63 4f 131 19 4d 4a fffffc2c fffffee3 2d 12 6c 2d 18
FIXUPS: 2a698 ecb 1b 2a 10 ffffff40 fffffea4 7f 47 fffffce4 fffffcbb 1e
FIXUPS: 2ae2c 19 16 14 2c 1b 17 27 16 16 14 c 1d 16 15 16 14 11 14 16 14
FIXUPS: 2beb8 fffffd87 5a 4f 79 fffffd4f 2e 2a 2e 14 22 22 fffffdd1 7a
FIXUPS: 2ba43 fffffde9 27 f f 27 fffffe5d a7 fffffe2b 12 2a 10 1b 2a 10
FIXUPS: 2b517 12 2a 127a 9 fffffd2c 2e 28 1e 2c 12 21 20 25 fffffe1d 12
FIXUPS: 2c461 16 10 1c 31 10 fffffe1e 2e 28 1e 2c 12 21 20 25 fffffa2c
FIXUPS: 2be70 1e 17 159a 19 a fffff783 a7 fffffde4 2a 1e 17 13 fffffd6a
FIXUPS: 2c85a 28 76 6e 7d 41 fffffdfd fffffe8e e f 10 a 5 5 16 39 c 17
FIXUPS: 2c772 2b 9 2a28 39 16 7c 2a 28 ffffdafe 10b 2a 18 38 16 2b 14 2e
FIXUPS: 2d009 18 7a 63 34 47 1e d 2f 15 11 1d 21 14 26 19d 18 1295 a0 2b
FIXUPS: 2e7b8 2b 39 20 49 33 142 17 1c 4c 58 b1 fd 76 11e a1 20 31 28 4f
FIXUPS: 2efb6 31 18 45 18 1f 8c 69 2a ffffedc6 1d 1f 62 34 3b 2b 3b 45
FIXUPS: 2e143 c 41 6b 56 36 c 2b 1c 2c 1c 18 1f 62 51 60 5a ac 55 51 2b
FIXUPS: 2e66b 28 fffff06b 128 1e 1b 33 2f 51 29 3c 21 1b 1c 6b 28 32 4f
FIXUPS: 2dafb 1f 5b 66 25 25 b3 19 59 5f 54 85 29 1f 2a 1c 1eea 11d 25
FIXUPS: 3005e 1e 30 75 32 22 26 170 55 53 ffffef7d 108 10 3e 54 4b 28 ffffdf47
FIXUPS: 2d4ba 28 23 20 29 2f 1c 69 28 5f 54 3469 29 43 5a 3d 33 3c 38 1c
FIXUPS: 30d26 18 17 fffff895 ffffff54 ffffff8b fffff1bd 34 24 cb 67 133
FIXUPS: 2f95b 21 34 30 a8 e2 142 ba 31 1e 2a 1d40 15 14 7 17 6b 20 fffff25c
FIXUPS: 30e5f 1d 20 1e 20 8d 12 13 19 fffffddd 36 fffff856 28 19f 20 57
FIXUPS: 30860 32 64 140 2a 34 35 6b ada 38 4c 31 16 f 17 37 19 92 18 20
FIXUPS: 3187b a f3 12 24 f 1f 12 1e 26 f 1c 12 21 d a 13 16 13 28 a26 b5
FIXUPS: 31f14 182 35 fffffd2b a a ffffff11 38 78 fffffeb4 22 fffff37a 32
FIXUPS: 310df 3f 6a 15 31 51 ba 3c 27 37 a 3f 25 b2 65 ce 36 1d3f c 10
FIXUPS: 33380 2a fffffc5b 98 f6 fffffdb9 fffffefe 5e 7 fffffc80 d 11 2f
FIXUPS: 32ba1 fffffe20 35 18 a6 10 fffffd83 50 c 5a fffffa21 18 11b 21
FIXUPS: 324bd 5d 2677 33 1b6 f4 27 36 44 c 10 16 c fffff2a3 21 7e c8 33
FIXUPS: 343d3 fffffbe1 1ae fffffd3d fffffc37 2a 2a 227 fffffa69 2a3 fffffa23
FIXUPS: 33502 2a fffffeb1 3a ffffff09 242e 1f 29 26 17 12 1c fffffe2d 41
FIXUPS: 3541b fffffcdf 1c3 17 fffff167 1d 53 1d 2b 2c c 3a e 11 2f 44 c
FIXUPS: 34641 e 11 182 1d8 1ac 1c94 4b fffffecc fffffcd3 1c 77 3a 59 15
FIXUPS: 36536 1d 14 13 14 1a 19 fffffd3c fffffc7b 13 dd 23f fffffb8d 4a
FIXUPS: 35f12 2b fffff903 56 1e 13 22 fffffe07 36 339b 59 ffffe988 191
FIXUPS: 3764c de0 ffffe940 58 ffffff5d 19 fffffe17 17 24 2c 18 3f 10 70
FIXUPS: 36c9f 55 fffffdd1 2f fffffeda 2b 29 32 fffffe32 2a 44 4b fffffe4d
FIXUPS: 367b6 2e5f 26f 19 1c 13 2a 3a 10 13 16 26 1e 41 93 20 68 82 10
FIXUPS: 39bcb 10 30 10 fffff3a6 21 21 24 2a 23 fffffe93 1d fffffc5a 37
FIXUPS: 3b9cd 15 fffff822 2bf 2d 2f fffffb42 72 13 24 17 fffffe5d 2b fffffe71
FIXUPS: 3ae2e fffff70c 14d eb 1c8 8c 152 6d 238 13 fffff496 fffffad9 29
FIXUPS: 39d08 17 fffff815 41 8c 26b2 111 43 107 4a 12 5 25e 35 35 1e8 fffff67d
FIXUPS: 3babc 20 23 20 20 20 1d 20 20 2d fffff99b 2a0 5a 34 37 60 21 20
FIXUPS: 3b9a7 11 1999 1d c 47 fffffaf7 70 4f 1df fffff71c 43 33 24 bd 2d
FIXUPS: 3ca91 32 43 c 10 c fffff969 21 35 35 13a c 10 c 27 6c fffff574
FIXUPS: 3bcae fffedff9 79 10 43 10 46 d 6c 16 1d d 47 d 33 5d d 36 2a d
FIXUPS: 2a040 1f 3a 14 137e0 a fffff8e2 73 1c 1f 49 11 71 fffeab63 d 34
FIXUPS: 27eac 11 d 40 11 d 2d d 33 d 1aaf 13 13 66 f 12 18 19 10 4a 22
FIXUPS: 29bc5 15 12 13 3f 10 33 13 ffffddca 2d 11 2d 12 7 10 6a d 3f d
FIXUPS: 27be8 d 4a 7 2d 13 7 2d 17 7 10 6f e d 35 e d 35 e d 35 8c6 d 49
FIXUPS: 28770 40 e 13 ffffeed8 12 3c 17ad0 b fffe855f 13 13 ac 12 17 179bb
FIXUPS: 3f1f2 fffe86b0 17 13 f 71 d 3f d 33 d 24 26 8e0 7 34 1d 6a 10 12
FIXUPS: 28427 e d 35 e d 35 e 12 50 e 12 45 e 12 35 10 12 34 e 12 3a 10
FIXUPS: 286be 41 27c 1e c 1f 13 41 10 fffff5e9 13 13 81 d 35 7 d 2c 13
FIXUPS: 28154 32 1d 37 7 d 2c 13 7 32 1d 37 7 d 2e c15 22 19 35 13 13 3a
FIXUPS: 28ff4 13 3a 15 f 40 1f 33 1610e c fffe9f20 d 188 e 1a 1e fffff50c
FIXUPS: 28828 39 13 13 51 10 4c 10 1043 45 e 12 fffff0da 19 32 13 13 46
FIXUPS: 28b8a 3a 1e 16 16 46 d 33 1e 16 11 91 d 5c d 15 30 2f 19 34 d 4a
FIXUPS: 2961f 12 2d 7 21 1a 16 18 27 d 2c 7 18 27 d 36 e d 35 e d 35 e
FIXUPS: 29872 35 e d 35 e 12 50 e ffffccd4 25 1a 2c 19 6e 1f 1f 2d 34 d
FIXUPS: 2682a 2c 23 16f00 21 14 1d 14 1f f fffebc34 13 13 97 7 21 1a 16
FIXUPS: 2956e 27 1d ffffcb13 22 15 17 17 19 19062 c fffe6fd0 3c 21 d 41
FIXUPS: 26276 2d 52 f 38 b7 f 19 f b5 11 27 24 2a 69 1a f 1b 2e fca 2c
FIXUPS: 27659 ffffe64e 27 1c 2c 36 d 2c 30 19 33 13 13 3a 10 30 10 49 3e
FIXUPS: 25f47 1b 14 9 d 3c 12 56 17 1b 3d fa9 f 1b 2e 9 25 38 19 71 12
FIXUPS: 271aa 16 7c 4a 2d 52 f 38 b7 f 19 f 46 1a 1f 42 1f 1f 30 16 3b
FIXUPS: 275c7 fffff61a 10 49 3e f e d c 16 14 9 d 3a 12 4a 62 19 2a 1c
FIXUPS: 26e54 15 31 1e 18 1f 12 3e 11 27 24 2a 69 ffffe966 33 197be c fffe6870
FIXUPS: 25a0e 188 e 14 10 ced b 2c d 48 3c 21 d 3c 27 1c 2c 36 14 2c 29
FIXUPS: 26b0e 33 13 13 3a 10 ffffe933 10 31 1c c 10 38 3b e 10 8c d 5c
FIXUPS: 256f0 15 30 2f 19 4b 19 22 19 35 13 13 3a 13 13 3a 11 f 44 fffff7e9
FIXUPS: 25176 12 1a 17 19fb1 b fffe6088 28 18 29 b 18 1a 19 10 3b 22 17
FIXUPS: 25366 1f 29 14 1a 1c 38 20 13 10 2d 20 18 ffffe5a5 8 d 1307 5 d
FIXUPS: 24de0 d 31 10 30 d 53 22 21 1a249 b fffe5ddc 13 13 4b 2b f 10 10
FIXUPS: 2503f 2e f 13 3d 10 60 ffffe3a9 1f 1f 2c e8 78 14 24 1f 1f 25 1b
FIXUPS: 2376d 1d 1b82d c b fffe480a 18 d 4b 10 64 1f 13 3a 10 69 13 13
FIXUPS: 23a23 30 1b51c fffe402d 7 32 d 6f 20 c 46 1c 24 1f 1f f9 54 14
FIXUPS: 232c6 1f 1f 27 1b 8 1d 1bc1c c b fffe440a 10 47 19 79 30 9a2 45
FIXUPS: 23eb8 5b 30 2e 13 fffffb72 19 32 13 13 46 d 4e 10 5b 30 2e 13 fffff152
FIXUPS: 22e48 2a 1c0d2 b fffe3f52 13 13 62 f 17 1c015 fffe57cc 1a 1a97a
FIXUPS: 3f0cd 17 b fffe56ac 1f 21 1a92c b fffe5719 1c 21 1a8bf b fffe5786
FIXUPS: 248c8 5b 30 2e 13 fffff388 30 19 13 29 13 13 68 19 b 5cf 16 16
FIXUPS: 24464 16 18 19 12 2b f 1d 1d 1ab26 1a b fffe54ff 1f 21 1aacc b
FIXUPS: 2460b 1c 21 1aa5f b fffe55eb 31 16 f 10 c c fffff8b4 3e d 75 19
FIXUPS: 240b4 22 c 15 1a 1aed3 17 b fffe5155 1f 21 1ae7c b fffe51c9 1c
FIXUPS: 24228 1ae0f b fffe521f 13 13 80 19 38 1f 7f 16 fffdcf69 1c e 10
FIXUPS: 24d06 19 3e d fffffc5c 1a 10 31 13 13 46 d 36 26 11 f 15 e 1d e
FIXUPS: 24b7b 4d 10 5b 30 2e 13 fffff312 fffde462 10 90 19 22 19 35 13
FIXUPS: 2567 3a d ffffea8f 11 13 13 2d 13 13 84 12 5d 15 42 1d d 46 1d
FIXUPS: 12ad 10 48 1c d ada 64 1f 13 8c d 5c d 15 30 2f 19 34 13 13 3a
FIXUPS: 20d4 13 5c 30 2e 13 2d 11 f 44 1f 33 3b6be c fffc4a95 e fffff571
FIXUPS: 1984 16 12 1a 3bf6e b fffc40c5 d 35 21 22 1d 44 f 51 f 51 f 41
FIXUPS: 1c07 42 22 2b 22 2b 30 15 32 2e 23 4d fffff82b 35 21 34 1b 22 11
FIXUPS: 171f 3c195 c d e e e c fffc3e4e 13 13 3a 10 a2 1b 1b b 18 1a 11
FIXUPS: 18f6 17 3c007 c b fffc5984 18 1e d 20 11 be 1f f 1c e 37 2a 14
FIXUPS: 13d9 5 d 33 d 33 10 30 d 59 12 17 1c a 21 38 21 35 1615 3a 11 f
FIXUPS: 2d66 e 14 10 40 19 22 19 35 13 13 3a d 121 18 1e d 22 5f d 15 71
FIXUPS: 3152 c 1f 12 35 1d fffff560 10 5f 15 17 3b19b b fffc4e98 d 42 22
FIXUPS: 28b3 22 28 3d 2c 23 36 14 30 12 16 8f d 40 1e 41 1e 2d d 33 13
FIXUPS: 37b4 1d 2c c 19 11 12 12 12 41 1f 27 29 30 1b 19 17 19 19 15 19
FIXUPS: 3a09 c 21 f 12 ffffec1a 17 2a 2f 13 13 162a 13 13 43 d 2e 2f 19
FIXUPS: 3e65 1f 33 39b1e c fffc65ef f fffff502 23 2d 13 13 3a 10 69 d 42
FIXUPS: 367b 28 22 28 3d 2c 23 1b6e 3a 13 13 ffffe792 17 18 2b 1a 8 d 18
FIXUPS: 3ba5 1a 8 d 18 2b 1a 8 d 18 2b 1a 8 5a 39c8f a b b b c fffc73c9
FIXUPS: 4db1 2f 34 f 49 19 d 3b d 35 18 1e d 20 11 118 1f 21 389fc b fffc7646
FIXUPS: 5138 64 1f 13 55 30 2e 13 2d 13 fffff3e2 f 5a c 26 35 ff 1d e 26
FIXUPS: 48f6 11 2a 26 14 2a 26 14 3c 1d 3908c b fffc6fa0 18 1e d 22 252
FIXUPS: 4d22 c 1f 12 fffff5bf 10 18 2b 1a 8 3a 39627 19 f a b b b b c fffc69a3
FIXUPS: 4414 13 78 15 1c f 17 3957e 19 f b fffc6aed 2c 25 b5 3945a b fffc7a9e
FIXUPS: 55b8 f 86 139 c c 1f 12 ffffe92d 24 12 21 18 37 26 7 18 2b 1a 8
FIXUPS: 4244 18 2b 1a 8 10 18 2b 1a 1e84 1b 4e 37912 b b b b b b b b b
FIXUPS: 3db84 fffc7d0d 19 37 13 13 43 d 89 34 f fffff95e 2d 33 13 13 69
FIXUPS: 5482 17 850 40 1e 1e 4f 17 1b 3b 17 1b 3b 17 1b 3b 17 1b 3b 17
FIXUPS: 5f9a 3b 14 1b 3b 14 1b 3b 14 1b 3b 17 1b 41 1a2e 13 3a 13 13 3a
FIXUPS: 7c6e 93 d 108 10 10 10 10 10 10 ffffdbdb 23 2d 13 13 3a 10 69 d
FIXUPS: 5bc9 22 28 22 28 3d 2c 1841 3675e c fffc98d0 11 f 44 1f 33 3668e
FIXUPS: 3dc91 fffc99c2 30 2e 13 1b2 e 14 10 8e e 14 10 e0 19 22 19 4c 19
FIXUPS: 7b23 19 65 fffff3e0 13 e6 d 5c d 15 30 2f 19 4b 10 64 1f 13 63
FIXUPS: 72e4 13 3a 13 13 3a 13 13 3a 13 13 3a 11 f 44 1f 36784 fffc8d38
FIXUPS: 699f 35 86 1d 15 47 37 d 42 22 2b 22 28 22 28 40 2c 23 91 d 2e
FIXUPS: 6dc4 19 4b 10 64 1f 13 55 30 fffff706 11 1f 19 15 19 19 41 20 13
FIXUPS: 67c7 20 b 13 1c b 18 d 16 f 20 b 15 16 15 d 16 f 11 1c 37304 9
FIXUPS: 63db 25 24 37773 c c c a b b b c fffc885f 13 13 3a 10 30 10 30
FIXUPS: 6541 73 12 f f 12 17 375fa c c c b 8e c fffca3d1 13 13 43 d 82
FIXUPS: 81a5 a6 16 1a 35a69 b fffc855a b b b 14 11 11 37 20 18 25 7 18
FIXUPS: 6378 7 18 25 7 37c01 b fffce852 1c 18 16 f 19 31751 b fffce8dc
FIXUPS: c8dd ffffb609 17 18 2b 1a 8 d 18 2b 1a 8 d 18 2b 1a 8 27 35c37
FIXUPS: 3dcae b fffce442 3d 10 5b 30 2a 8 d 6d 19 50 10 3c d bc 19 1c 31
FIXUPS: c470 3d 19 1c 31 d 48 24 f 182 18 16 f 19 fffff30e 13 13 3a 11
FIXUPS: bb01 44 1f 33 3240e c fffcdc42 30 2a 8 d 2f d 206 d 6e 19 50 10
FIXUPS: bfd8 10 5b 30 2a 8 d 39 fffff3c0 13 ec d 70 1e 2e d 15 30 2f 19
FIXUPS: b756 1e 2d d 9a 19 22 19 4a e 14 10 30 10 69 13 13 3a 13 13 fffff66b
FIXUPS: b0e9 f f 38 1e 1c f 11 36 21 1e 1d 34 14 30 18 16 2e 14 18 11 36
FIXUPS: b381 4d 18 19 12 1a 32b59 b fffcd4fd fffffa86 2a 53 1d 1c 18 e
FIXUPS: aff9 21 15 1c 32e4c c c c c c c c c c c c c c c c c c b fffcd117
FIXUPS: b0a3 fffffa6b 1d 24 22 12 28 24 22 12 3d b 21 2a 14 24 24 12 b
FIXUPS: ad30 23 23 14 24 24 12 18 1c 24 1f 12 13 30 fffff7f7 22 1b 58 1e
FIXUPS: a77e 22 12 28 24 22 12 1f 24 24 12 b 21 27 14 24 24 12 36 1f 1b
FIXUPS: aa28 23 28 2a 29 32 fffff6c6 24 12 13 37 13 1c 24 1f 12 13 5e 23
FIXUPS: a3a4 24 27 39 e 22 41 2a 1b 2a 19 8b 19 15 3b b 27 21 20 fffff755
FIXUPS: 9e05 28 28 2e 1f 1f 1f 24 35 1a 1d 24 22 12 28 24 22 12 28 e 15
FIXUPS: a0af 2e 14 24 24 12 8 15 1e 14 fffff876 11 1f 15 e 25 24 1f 12
FIXUPS: 9b00 24 22 12 1c 24 1f 12 23 24 22 12 8 2f 13 31 4a 27 19 32 b
FIXUPS: 9da4 21 fffff729 3c 73 3c 35 20 24 22 12 18 1c 24 1f 12 1f c9 29
FIXUPS: 9843 1f 18 14 2e 56 27 25 f 1f 344db c b fffcbb5c 21 fffff5b2 19
FIXUPS: 8fe7 22 12 15 19 21 1f f e 13 13 88 23b 3e 17 1d c 1b 12 21 21
FIXUPS: 948b 19 20 34953 9 c c c b fffcad0c e 3b 16 5 12 10 5b 25 1d 1d
FIXUPS: 8ca7 7d 18 16 f 1d 35076 9 b fffcafd3 1b f 82 1b f 5f 24 22 12
FIXUPS: 8f81 1d fffff7ab 1a 35661 9 9 b fffca9b9 d 42 22 28 22 28 3d 2c
FIXUPS: 8909 5e b 18 18 22 16 32 15 4b 16 2c 15 1d 18 16 f fffff964 13
FIXUPS: 84a7 3a 10 7a 25 12 f f f f 12 17 35760 c c c c f b fffca8aa 18
FIXUPS: 868c f 17 18 19 f 17 18 19 439d 196 21 35 21 fffffc2d 19 37 13
FIXUPS: c987 43 d ffffb91f 15 12 f 11 11 14 37 20 44 18 43 358af c c c
FIXUPS: 3dd37 f a c fffd1f7c 10 5b 30 2a 8 d 39 10 39 d 6e 19 50 10 40
FIXUPS: ff78 5b 30 2a 8 d 39 10 ae 10 ffffc8b8 2a 36 13 13 43 2cad 15 15
FIXUPS: f7b6 15 15 2c f 61 1f 13 8e 1f 13 63 13 13 3a 13 13 42 10 42 10
FIXUPS: fb34 d 63 d 6e 19 50 10 fffff7f4 21 f c3 c 19 20 2eb90 9 c c c
FIXUPS: 3e18d c c c c c c c c c c c b fffd13d5 35 31 13 45 36 6d fffff444
FIXUPS: ebaf 21 1f f 2a2 21 21 f 25 28 f b 2a 21 1f f 15 10 21 1f 15 1b
FIXUPS: f079 1d 28 f 49 21 1f f 306 fffff2a7 f 19 21 1f f 69 59 8 2f 8
FIXUPS: e8ed 21 21 f 25 28 f b 27 21 1f f 12 10 21 1f 12 15 13 ab 25 fffff72a
FIXUPS: e2d2 1c 1f 21 1e 1f e 21 1f 1f 21 1a 1c 2fcf5 9 9 b fffd033b 24
FIXUPS: e4c4 24 26 f 1c 35 13 5a 19 4e 19 92 fffff319 24 7b 20 2b 71 10
FIXUPS: dbb7 19 77 18 16 f 1d 418 24 21 f 20 2b 1f 14 19 1a 24 1f 12 1e
FIXUPS: e250 21 1d 18 2fd8f e e e e e e e e e e e c fffcf576 13 13 81 24
FIXUPS: d734 19 f f f f 1a 30941 c c c b fffcf87b 19 fffff8d8 21 3a 1a
FIXUPS: d2fc 1f 21 3a 1a 8 1f 21 3a 1a 8 1f 21 3a 1a 8 1f 21 3a 1a 8 51
FIXUPS: d5d6 45 309e9 c c c fffceea4 21 3a 1a 8 16 7 21 3a 1a 8 1f 21 3a
FIXUPS: d077 8 25 7 21 3a 1a 8 1f 21 3a 1a 8 1f 21 3a 1a 8 2f21 2d 33 13
FIXUPS: 10207 69 12 17 2df8b b fffd217e c 19 5b 12 67 58 12 ffffc81c 12
FIXUPS: cd4d f 27 1f 49 28 1f 21 3a 1a 8 16 4220 19 2d187 c fffd2ea4 2f
FIXUPS: 1117d 48 1f 33 2d08e c fffd30a7 14 21 2cf37 b fffd2272 2a 36 13
FIXUPS: 105c7 43 d 119 c 35 11 1e 13 11 24 3a0 70 19 22 19 65 13 13 3a
FIXUPS: 10d1e c4 1b 16 1c 27 f 5e d 15 65 14 e 1b 1c 20 11 73 24 9 1b 2b
FIXUPS: 110c9 2796 17 2ab9e b fffd2417 12 14 37 2d9b1 c b fffd2666 13 13
FIXUPS: 1094c f f 17 2d8e3 c b fffd278f d 2a 13 13 3a 11 f 95 e 14 28a1
FIXUPS: 3e384 17 b fffd50f7 10 23 1a 2aeca 9 b fffd515d 12 10 51 19 22
FIXUPS: 135ec 65 13 13 56 f 17 2ace1 b fffd53eb 19 21 2abf0 b fffd5451
FIXUPS: 3e324 b fffd4d1b d 4f b 35 1e 1a 2b226 b fffd4e02 13 13 3a 15 8
FIXUPS: 131dd 4f 21 b 31 1a 2b0c1 a c fffd5038 e 9 16 c 14 fffff853 17
FIXUPS: 12c85 1c 13 17 25 2f 18 f 20 56 22 22 26 f 20 1b 1a 3c 28 15 15
FIXUPS: 12f37 2b3b0 c c c b fffd4c72 14 21 fffff8e7 15 16 2e 38 1d 16 12
FIXUPS: 12991 11 f 3d 12 13 17 39 1e 37 3d 17 23 1c 13 1c 17 15 13 13 1e
FIXUPS: 12c03 13 17 fffff96c 13 1e 15 15 13 1c 13 17 9 15 9 15 16 2e 38
FIXUPS: 12722 16 12 17 11 f 3c 31 35 12 13 17 9 15 9 15 fffff90b 15 15
FIXUPS: 12206 25 17 29 1c 13 23 13 27 6b f 20 2a 13 13 1e 15 20 13 13 1e
FIXUPS: 1248d 20 13 17 15 43 1e 24 fffff8e8 13 31 41 f 23 13 17 1a 23 1d
FIXUPS: 11fb1 f 1f 13 17 15 15 15 15 12 10 10 17 13 17 2c 17 37 f 23 13
FIXUPS: 11b11 13 23 13 13 15 19 1c 13 19 1f 17 f 19 19 19 13 24 17 19 3e
FIXUPS: 11d37 1b 13 20 1b f 23 13 23 1f f fffff997 1b 1b 1b 1b 1b 1b 1b
FIXUPS: 118a5 17 17 17 17 17 1d 28 c 19 11 12 3b 24 21 f 12 28 1e c 1f
FIXUPS: 11ad3 e 14 2c99a fffd57a1 16 f 33 f ffffd72a 69 37 13 13 73 d 42
FIXUPS: 1156b 28 22 28 3d 2c 23 3b 1b 1b 1b 1b 1b 1b 1b 1b 1b 1b 2194 d
FIXUPS: 1396b 2b 1a 8 d 18 2b 1a 8 d 18 2b 1a 8 3b 24 2a939 c a b b b c
FIXUPS: 13b31 13 13 62 f 17 2a8a5 fffd5af2 23 3b 1d 2c c 19 11 f 12 3b
FIXUPS: 140c8 20 29 30 1f 1e 19 17 19 19 15 19 15 f 12 fffff675 14 14 18
FIXUPS: 13924 1a 2ad62 e e e e e e e e c fffd8a2e 16 13 13 13 3b 10 30
FIXUPS: 17221 ffffcb20 23 2d 13 13 73 d 42 22 28 22 28 3d 2e71 8 1a 24
FIXUPS: 16e3e 1b 1f 8 1a 24 3d 1b 1f 8 1a 24 3d 1b 1f 8 1a 24 3d 1b 1f
FIXUPS: 170b7 2b 1c 2756a e e e fffd82f2 8 3d 7 24 3d 1b 1f 8 3d 7 24 3d
FIXUPS: 16b33 1f 8 1a 24 3d 1b 1f 8 1a 24 3d 1b 1f 8 4c 24 3d 1b 27879
FIXUPS: 3e621 c c c b fffd7f41 1f 36 2b 4c 1c 1a 43 54 39 24 3d 1b 1f 8
FIXUPS: 16825 7 24 3d 1b 1f 8 1a 24 3d 1b fffff58d f 15 10 21 1f 15 1b
FIXUPS: 15fa9 3a 1f 28 f 49 21 1f f 2fd 21 21 f f9 c 19 20 28067 9 c c
FIXUPS: 3e5f1 c c fffd71a7 24 24 26 f 30 8 7c 1b 97 28 f b 1c c0 25 f 19
FIXUPS: 15b1f 1f f 1f 25e 21 21 f 2b 28 f b 2a 21 fffff501 16 3d 1c c 19
FIXUPS: 1547d 16 c 1f 8 2a 8 c4 2c 8 40 8 29 8 63 21 21 c f 1a 28e51 9
FIXUPS: 3e5a6 9 b fffd71d2 fffff870 1d 22 17 19 23 24 1f 18 21 25 27 20
FIXUPS: 15197 b 27 1c 22 24 21 25 11 27 22 22 24 20 29226 c c c b fffd63a2
FIXUPS: 1493c 116 19 65 21 f 64 27 20 2b 38 19 1d 3d 8 40 8 2e 24 1f 12
FIXUPS: 14ec1 24 21 12 42 24 1f 12 18 14 fffff65a 16 7 18 2b 1a 8 5a 29d93
FIXUPS: 3e4b0 c c a b b b b b c fffd622c 13 13 62 f f f 17 29d17 c c b
FIXUPS: 14880 fffffa5d f 31 18 44 29 1e 18 2b 1a 8 d 18 37 26 e 17 10 18
FIXUPS: 1451f 1a 8 10 18 2b 1a 8 13 7 18 2b 1a 2a10f b b b c fffd8e98 13
FIXUPS: 17627 3a 10 5f 15 17 2707b b fffd8fb8 d 42 22 28 22 28 3d 2c 23
FIXUPS: 178df 14 30 12 16 ffffc971 12 303e 17 17 18 2b 1a 8 13 7 18 2b
FIXUPS: 17416 8 13 7 18 2b 1a 8 d 18 2b 1a 8 26 18 2b 1a 8 3b 27152 a fffd9388
FIXUPS: 17adb 28 22 28 3d 2c 23 3b 1d 2c c 19 11 f 12 12 40 19 1d 29 30
FIXUPS: 17db0 19 17 19 19 15 19 15 f 12 10f5 16 e 16 1f f ffffeefe 2d 33
FIXUPS: 17f44 13 3a 10 43 10 36 d 42 22 28 22 28 3d 2c 23 fffff7e8 23 2d
FIXUPS: 179e4 13 73 d 1107 20 20 20 20 20 20 20 27 22 22 23 10 1e f 4a
FIXUPS: 18d92 1f 1f 1f 34 1c 1f 1f 1f 1f 1f 1f 1f 21 e 16 fffff733 1a 16
FIXUPS: 186e1 28 10 47 15 21 19 15 21 19 15 21 16 21 16 13 32 12 138 1d
FIXUPS: 18a3c 3f 20 20 20 20 23 11 24 25e60 b fffd9888 1a 22 21 264f4 b
FIXUPS: 182d1 13 13 3a 10 3c d 40 d 42 22 28 22 28 3d 2c 23 47 2c 21 1c
FIXUPS: 1862f 21 1c 26306 fffdd02c f d 42 d 80 1c 16 18 9 f b 14 f 1b 1c
FIXUPS: 3e984 b fffdd224 d 15 2c 13 13 62 14 18 11 12 17 22cb8 ffffff7e
FIXUPS: 3e931 fffdc717 19 22 19 35 11 f 44 1f 33 237be c fffdc980 d 33
FIXUPS: 1b357 1ea 13 13 3a 13 13 8a d 113 d 13d 14 2a 2306e fffdc291 10
FIXUPS: 1ac31 13 13 3a 13 13 3a 13 13 3a 13 13 51 19 22 19 35 15 f 40 23
FIXUPS: 1af0b 239fa c fffdc630 11 f 44 1f 33 fffff6bd 19 48 1f 2b 2e 24138
FIXUPS: 3e8d1 fffdbf04 1f 2b 2e 24098 c fffdbff7 19 22 19 4a e 14 10 82
FIXUPS: 1aa47 5c d 15 30 2f 19 99 e fffff51b 28 3a b 14 19 1b 5f d 15 85
FIXUPS: 1a2c7 32 2f 19 95 e 1a 1e 8e d 8e 2f 19 48 d d 15 2f d 15 30 fffff6e3
FIXUPS: 19d77 1e 3e 24 17 24a57 c fffdb5ea 14 21 249f7 b fffdb643 1b 3f
FIXUPS: 19f37 15 e e 11 1e 3e 24 17 24895 c fffdb7b8 34 23 14 b fffffa06
FIXUPS: 19afa 1c a 26 10 a 6 16 b 21 39 8 1e a 14 15 c a 18 f 11 c f 1a
FIXUPS: 3e824 9 d e c fffdb4b1 1b fffffaa7 18 14 15 11 14 1c a 26 10 a
FIXUPS: 19899 16 13 31 21 33 14 25 a 14 15 c a 18 f 11 3d 34 39 e 18 fffff96d
FIXUPS: 19457 1d 12 17 2533a c b fffdace3 13 13 59 12 17 2528e b fffdadba
FIXUPS: 195e0 24 1b 50 16 15 12 f 11 26 12 19 2f 34 39 5464 f 22e 21 21
FIXUPS: 1eeab c6 f 1c 1fc78 9 c c c c c c c c b fffda633 14 4c 2549c b
FIXUPS: 19351 13 13 62 14 24 19 51db 28 c 1c 21 1f f 69 40 8 2f 8 49 21
FIXUPS: 1e817 f ab 28 f 1c 21 1f f 18b 21 21 f 1d 28 f 3a 21 fffff662 19
FIXUPS: 1e299 208fb c c c c c c c c c b fffdf6c6 31 13 38 53 e 15 15 15
FIXUPS: 1e402 15 1a 58 13 5a 19 4e 19 fffff23d 65 59 8 2f 8 49 21 21 f
FIXUPS: 1d9f5 28 f 1c 21 1f f 272 21 21 f 1d 28 f 49 21 1f f 306 21 21
FIXUPS: 1e19d fffff2bf 21698 9 9 c c c c c c c c c b fffde92f 24 24 24
FIXUPS: 1d53e f 45 13 5a 19 4e 19 92 28 f 1c 21 1f fffff95a 21 f 2b 1f
FIXUPS: 1d18c 19 1a 21 1f 12 1e 1f 21 1d 18 8 21 1c 1f 21 1e 1f b 21 1f
FIXUPS: 1d3d0 21 1a 16 c f fffff505 15 10 21 1f 12 15 13 28 25 f 8 24 21
FIXUPS: 1caa8 f 15 10 21 1f 12 15 13 51 1e 15 7b 21 1f f 1d 41c 21998 e
FIXUPS: 3ea91 c fffddaf4 13 13 81 24 18 19 f f f f 1a 223d1 c c c b fffddd5c
FIXUPS: 1c847 f 10 2c 25 f 8 24 21 1f fffff9ab 8 1f 21 3a 1a 8 1f 21 3a
FIXUPS: 1c415 8 1f 21 3a 1a 8 51 19 38 22479 c c c d e e e e e e e fffdd489
FIXUPS: 1bf2a 1a 8 10 21 3a 1a 8 1f 21 3a 1a 8 1f 21 3a 1a 8 1f 21 3a 1a
FIXUPS: 1c1ad 1f 21 3a 1a 8 1f 21 3a 22bf2 c c b fffe3869 31 13 38 ffffc854
FIXUPS: 1f02b 13 33 13 13 43 d 5d 12 ffffcbe6 12 f f 27 1f 49 28 1f 21
FIXUPS: 1be9d 1a 8 10 5a65 1f f 76 c6c 1b 15 21 21 f c 19 20 1c6ca 9 c
FIXUPS: 3edf5 c c c c c c c c c c c c c c c fffe2708 21 1f f 42 1d 21 21
FIXUPS: 216b0 28 28 f b 2a 21 1f f 15 10 21 1f 15 1b 13 14 8 1d 8 35 28
FIXUPS: 218e8 2b fffff370 13 b7 25 f 19 21 1f f 1f 454 21 21 f 2b 28 f
FIXUPS: 2131a 2a 21 1f f 15 10 21 1f 15 1b 13 129 25 f 1d828 fffe1aac 20
FIXUPS: 20898 26 62 1d 21 1f f 83 40 8 2f 8 41 21 21 f 22 28 f b 27 21
FIXUPS: 20beb f 12 10 21 1f 12 fffff8a5 1e 11 19 20 1f 1f 1f 2f e 21 1c
FIXUPS: 20671 1f 21 1e e 21 1f 1f 1f 14 19 20 21 1a 19 20 1e578 c 9 c fffe1119
FIXUPS: 1fef3 c6 25 56 25 57 25 59 25 5a 25 59 25 5a 25 59 25 56 24 21
FIXUPS: 203fa 20 b f 12 24 21 1f 12 1e 21 fffff35c 62 f f f f 17 1f448
FIXUPS: 3ed60 c c b fffe0d1f 25 24 1f f a7 16 25 45 25 46 25 48 25 49 25
FIXUPS: 1fdf3 25 49 25 fffff7f5 8 1f 18 34 1a 8 1f 18 34 1a 8 5d 1f49a
FIXUPS: 3eca0 c c c a b b b b b b b b b b c fffe0ae9 13 fffffaad 2b 1a
FIXUPS: 1f33e 1f 18 2b 1a 8 1f 18 34 1a 8 1f 18 34 1a 8 1f 18 34 1a 8 1f
FIXUPS: 1f5a0 34 1a 8 1f 18 34 1f883 a b b b b b c fffe3c70 13 13 43 d
FIXUPS: 22c8f 37 f ffffc4c7 12 f f f 14 18 2b 1a 8 10 18 2b 1a 8 10 3573
FIXUPS: 22863 18 2b 1a 8 d 18 2b 1a 8 d 18 2b 1a 8 d 18 2b 1a 8 d 18 2b
FIXUPS: 22a88 8 d 18 2b 1a 8 72
